
GccApplication1.elf:     file format elf32-avr

Sections:
Idx Name          Size      VMA       LMA       File off  Algn
  0 .text         000011c0  00000000  00000000  00000094  2**1
                  CONTENTS, ALLOC, LOAD, READONLY, CODE
  1 .data         000000a2  00800060  000011c0  00001254  2**0
                  CONTENTS, ALLOC, LOAD, DATA
  2 .bss          00000012  00800102  00800102  000012f6  2**0
                  ALLOC
  3 .comment      0000005c  00000000  00000000  000012f6  2**0
                  CONTENTS, READONLY
  4 .note.gnu.avr.deviceinfo 0000003c  00000000  00000000  00001354  2**2
                  CONTENTS, READONLY
  5 .debug_aranges 000000e0  00000000  00000000  00001390  2**0
                  CONTENTS, READONLY, DEBUGGING
  6 .debug_info   00001735  00000000  00000000  00001470  2**0
                  CONTENTS, READONLY, DEBUGGING
  7 .debug_abbrev 00000856  00000000  00000000  00002ba5  2**0
                  CONTENTS, READONLY, DEBUGGING
  8 .debug_line   000009c2  00000000  00000000  000033fb  2**0
                  CONTENTS, READONLY, DEBUGGING
  9 .debug_frame  000002fc  00000000  00000000  00003dc0  2**2
                  CONTENTS, READONLY, DEBUGGING
 10 .debug_str    0000046b  00000000  00000000  000040bc  2**0
                  CONTENTS, READONLY, DEBUGGING
 11 .debug_loc    00000c96  00000000  00000000  00004527  2**0
                  CONTENTS, READONLY, DEBUGGING
 12 .debug_ranges 000001c8  00000000  00000000  000051bd  2**0
                  CONTENTS, READONLY, DEBUGGING

Disassembly of section .text:

00000000 <__vectors>:
       0:	0c 94 2a 00 	jmp	0x54	; 0x54 <__ctors_end>
       4:	0c 94 47 00 	jmp	0x8e	; 0x8e <__bad_interrupt>
       8:	0c 94 47 00 	jmp	0x8e	; 0x8e <__bad_interrupt>
       c:	0c 94 47 00 	jmp	0x8e	; 0x8e <__bad_interrupt>
      10:	0c 94 47 00 	jmp	0x8e	; 0x8e <__bad_interrupt>
      14:	0c 94 47 00 	jmp	0x8e	; 0x8e <__bad_interrupt>
      18:	0c 94 47 00 	jmp	0x8e	; 0x8e <__bad_interrupt>
      1c:	0c 94 47 00 	jmp	0x8e	; 0x8e <__bad_interrupt>
      20:	0c 94 47 00 	jmp	0x8e	; 0x8e <__bad_interrupt>
      24:	0c 94 47 00 	jmp	0x8e	; 0x8e <__bad_interrupt>
      28:	0c 94 47 00 	jmp	0x8e	; 0x8e <__bad_interrupt>
      2c:	0c 94 47 00 	jmp	0x8e	; 0x8e <__bad_interrupt>
      30:	0c 94 47 00 	jmp	0x8e	; 0x8e <__bad_interrupt>
      34:	0c 94 47 00 	jmp	0x8e	; 0x8e <__bad_interrupt>
      38:	0c 94 47 00 	jmp	0x8e	; 0x8e <__bad_interrupt>
      3c:	0c 94 47 00 	jmp	0x8e	; 0x8e <__bad_interrupt>
      40:	0c 94 47 00 	jmp	0x8e	; 0x8e <__bad_interrupt>
      44:	0c 94 47 00 	jmp	0x8e	; 0x8e <__bad_interrupt>
      48:	0c 94 47 00 	jmp	0x8e	; 0x8e <__bad_interrupt>
      4c:	0c 94 47 00 	jmp	0x8e	; 0x8e <__bad_interrupt>
      50:	0c 94 47 00 	jmp	0x8e	; 0x8e <__bad_interrupt>

00000054 <__ctors_end>:
      54:	11 24       	eor	r1, r1
      56:	1f be       	out	0x3f, r1	; 63
      58:	cf e5       	ldi	r28, 0x5F	; 95
      5a:	d8 e0       	ldi	r29, 0x08	; 8
      5c:	de bf       	out	0x3e, r29	; 62
      5e:	cd bf       	out	0x3d, r28	; 61

00000060 <__do_copy_data>:
      60:	11 e0       	ldi	r17, 0x01	; 1
      62:	a0 e6       	ldi	r26, 0x60	; 96
      64:	b0 e0       	ldi	r27, 0x00	; 0
      66:	e0 ec       	ldi	r30, 0xC0	; 192
      68:	f1 e1       	ldi	r31, 0x11	; 17
      6a:	02 c0       	rjmp	.+4      	; 0x70 <__do_copy_data+0x10>
      6c:	05 90       	lpm	r0, Z+
      6e:	0d 92       	st	X+, r0
      70:	a2 30       	cpi	r26, 0x02	; 2
      72:	b1 07       	cpc	r27, r17
      74:	d9 f7       	brne	.-10     	; 0x6c <__do_copy_data+0xc>

00000076 <__do_clear_bss>:
      76:	21 e0       	ldi	r18, 0x01	; 1
      78:	a2 e0       	ldi	r26, 0x02	; 2
      7a:	b1 e0       	ldi	r27, 0x01	; 1
      7c:	01 c0       	rjmp	.+2      	; 0x80 <.do_clear_bss_start>

0000007e <.do_clear_bss_loop>:
      7e:	1d 92       	st	X+, r1

00000080 <.do_clear_bss_start>:
      80:	a4 31       	cpi	r26, 0x14	; 20
      82:	b2 07       	cpc	r27, r18
      84:	e1 f7       	brne	.-8      	; 0x7e <.do_clear_bss_loop>
      86:	0e 94 8b 05 	call	0xb16	; 0xb16 <main>
      8a:	0c 94 de 08 	jmp	0x11bc	; 0x11bc <_exit>

0000008e <__bad_interrupt>:
      8e:	0c 94 00 00 	jmp	0	; 0x0 <__vectors>

00000092 <output>:
	TCCR0 = 0;
}

void avr_init(void)
{
	WDTCR = 15;
      92:	66 23       	and	r22, r22
      94:	11 f0       	breq	.+4      	; 0x9a <output+0x8>
      96:	c0 9a       	sbi	0x18, 0	; 24
      98:	01 c0       	rjmp	.+2      	; 0x9c <output+0xa>
      9a:	c0 98       	cbi	0x18, 0	; 24
      9c:	c1 98       	cbi	0x18, 1	; 24
      9e:	82 bb       	out	0x12, r24	; 18
      a0:	8f ef       	ldi	r24, 0xFF	; 255
      a2:	81 bb       	out	0x11, r24	; 17
      a4:	c2 9a       	sbi	0x18, 2	; 24
      a6:	00 00       	nop
      a8:	00 00       	nop
      aa:	00 00       	nop
      ac:	c2 98       	cbi	0x18, 2	; 24
      ae:	08 95       	ret

000000b0 <write>:
      b0:	c0 98       	cbi	0x18, 0	; 24
      b2:	c1 9a       	sbi	0x18, 1	; 24
      b4:	11 ba       	out	0x11, r1	; 17
      b6:	90 b3       	in	r25, 0x10	; 16
      b8:	c2 9a       	sbi	0x18, 2	; 24
      ba:	00 00       	nop
      bc:	00 00       	nop
      be:	00 00       	nop
      c0:	11 ba       	out	0x11, r1	; 17
      c2:	90 b3       	in	r25, 0x10	; 16
      c4:	c2 98       	cbi	0x18, 2	; 24
      c6:	99 23       	and	r25, r25
      c8:	9c f3       	brlt	.-26     	; 0xb0 <write>
      ca:	0e 94 49 00 	call	0x92	; 0x92 <output>
      ce:	08 95       	ret

000000d0 <lcd_clr>:
      d0:	60 e0       	ldi	r22, 0x00	; 0
      d2:	81 e0       	ldi	r24, 0x01	; 1
      d4:	0e 94 58 00 	call	0xb0	; 0xb0 <write>
      d8:	08 95       	ret

000000da <lcd_pos>:
      da:	cf 93       	push	r28
      dc:	c6 2f       	mov	r28, r22
      de:	98 e2       	ldi	r25, 0x28	; 40
      e0:	89 9f       	mul	r24, r25
      e2:	c0 0d       	add	r28, r0
      e4:	11 24       	eor	r1, r1
      e6:	60 e0       	ldi	r22, 0x00	; 0
      e8:	82 e0       	ldi	r24, 0x02	; 2
      ea:	0e 94 58 00 	call	0xb0	; 0xb0 <write>
      ee:	cc 23       	and	r28, r28
      f0:	31 f0       	breq	.+12     	; 0xfe <lcd_pos+0x24>
      f2:	60 e0       	ldi	r22, 0x00	; 0
      f4:	84 e1       	ldi	r24, 0x14	; 20
      f6:	0e 94 58 00 	call	0xb0	; 0xb0 <write>
      fa:	c1 50       	subi	r28, 0x01	; 1
      fc:	d1 f7       	brne	.-12     	; 0xf2 <lcd_pos+0x18>
      fe:	cf 91       	pop	r28
     100:	08 95       	ret

00000102 <lcd_puts>:
     102:	cf 93       	push	r28
     104:	df 93       	push	r29
     106:	ec 01       	movw	r28, r24
     108:	21 96       	adiw	r28, 0x01	; 1
     10a:	fc 01       	movw	r30, r24
     10c:	80 81       	ld	r24, Z
     10e:	88 23       	and	r24, r24
     110:	31 f0       	breq	.+12     	; 0x11e <lcd_puts+0x1c>
     112:	61 e0       	ldi	r22, 0x01	; 1
     114:	0e 94 58 00 	call	0xb0	; 0xb0 <write>
     118:	89 91       	ld	r24, Y+
     11a:	81 11       	cpse	r24, r1
     11c:	fa cf       	rjmp	.-12     	; 0x112 <lcd_puts+0x10>
     11e:	df 91       	pop	r29
     120:	cf 91       	pop	r28
     122:	08 95       	ret

00000124 <display_time>:
     124:	cf 92       	push	r12
     126:	df 92       	push	r13
     128:	ef 92       	push	r14
     12a:	ff 92       	push	r15
     12c:	0f 93       	push	r16
     12e:	1f 93       	push	r17
     130:	cf 93       	push	r28
     132:	df 93       	push	r29
     134:	cd b7       	in	r28, 0x3d	; 61
     136:	de b7       	in	r29, 0x3e	; 62
     138:	61 97       	sbiw	r28, 0x11	; 17
     13a:	0f b6       	in	r0, 0x3f	; 63
     13c:	f8 94       	cli
     13e:	de bf       	out	0x3e, r29	; 62
     140:	0f be       	out	0x3f, r0	; 63
     142:	cd bf       	out	0x3d, r28	; 61
     144:	16 2f       	mov	r17, r22
     146:	07 2f       	mov	r16, r23
     148:	f4 2e       	mov	r15, r20
     14a:	e5 2e       	mov	r14, r21
     14c:	d2 2e       	mov	r13, r18
     14e:	c3 2e       	mov	r12, r19
     150:	61 e0       	ldi	r22, 0x01	; 1
     152:	0e 94 6d 00 	call	0xda	; 0xda <lcd_pos>
     156:	cf 92       	push	r12
     158:	df 92       	push	r13
     15a:	ef 92       	push	r14
     15c:	ff 92       	push	r15
     15e:	0f 93       	push	r16
     160:	1f 93       	push	r17
     162:	80 e9       	ldi	r24, 0x90	; 144
     164:	90 e0       	ldi	r25, 0x00	; 0
     166:	9f 93       	push	r25
     168:	8f 93       	push	r24
     16a:	8e 01       	movw	r16, r28
     16c:	0f 5f       	subi	r16, 0xFF	; 255
     16e:	1f 4f       	sbci	r17, 0xFF	; 255
     170:	1f 93       	push	r17
     172:	0f 93       	push	r16
     174:	0e 94 f4 05 	call	0xbe8	; 0xbe8 <sprintf>
     178:	c8 01       	movw	r24, r16
     17a:	0e 94 81 00 	call	0x102	; 0x102 <lcd_puts>
     17e:	0f b6       	in	r0, 0x3f	; 63
     180:	f8 94       	cli
     182:	de bf       	out	0x3e, r29	; 62
     184:	0f be       	out	0x3f, r0	; 63
     186:	cd bf       	out	0x3d, r28	; 61
     188:	61 96       	adiw	r28, 0x11	; 17
     18a:	0f b6       	in	r0, 0x3f	; 63
     18c:	f8 94       	cli
     18e:	de bf       	out	0x3e, r29	; 62
     190:	0f be       	out	0x3f, r0	; 63
     192:	cd bf       	out	0x3d, r28	; 61
     194:	df 91       	pop	r29
     196:	cf 91       	pop	r28
     198:	1f 91       	pop	r17
     19a:	0f 91       	pop	r16
     19c:	ff 90       	pop	r15
     19e:	ef 90       	pop	r14
     1a0:	df 90       	pop	r13
     1a2:	cf 90       	pop	r12
     1a4:	08 95       	ret

000001a6 <display_date>:
     1a6:	cf 92       	push	r12
     1a8:	df 92       	push	r13
     1aa:	ef 92       	push	r14
     1ac:	ff 92       	push	r15
     1ae:	0f 93       	push	r16
     1b0:	1f 93       	push	r17
     1b2:	cf 93       	push	r28
     1b4:	df 93       	push	r29
     1b6:	cd b7       	in	r28, 0x3d	; 61
     1b8:	de b7       	in	r29, 0x3e	; 62
     1ba:	61 97       	sbiw	r28, 0x11	; 17
     1bc:	0f b6       	in	r0, 0x3f	; 63
     1be:	f8 94       	cli
     1c0:	de bf       	out	0x3e, r29	; 62
     1c2:	0f be       	out	0x3f, r0	; 63
     1c4:	cd bf       	out	0x3d, r28	; 61
     1c6:	16 2f       	mov	r17, r22
     1c8:	07 2f       	mov	r16, r23
     1ca:	f4 2e       	mov	r15, r20
     1cc:	e5 2e       	mov	r14, r21
     1ce:	d2 2e       	mov	r13, r18
     1d0:	c3 2e       	mov	r12, r19
     1d2:	61 e0       	ldi	r22, 0x01	; 1
     1d4:	0e 94 6d 00 	call	0xda	; 0xda <lcd_pos>
     1d8:	cf 92       	push	r12
     1da:	df 92       	push	r13
     1dc:	ef 92       	push	r14
     1de:	ff 92       	push	r15
     1e0:	0f 93       	push	r16
     1e2:	1f 93       	push	r17
     1e4:	8f e9       	ldi	r24, 0x9F	; 159
     1e6:	90 e0       	ldi	r25, 0x00	; 0
     1e8:	9f 93       	push	r25
     1ea:	8f 93       	push	r24
     1ec:	8e 01       	movw	r16, r28
     1ee:	0f 5f       	subi	r16, 0xFF	; 255
     1f0:	1f 4f       	sbci	r17, 0xFF	; 255
     1f2:	1f 93       	push	r17
     1f4:	0f 93       	push	r16
     1f6:	0e 94 f4 05 	call	0xbe8	; 0xbe8 <sprintf>
     1fa:	c8 01       	movw	r24, r16
     1fc:	0e 94 81 00 	call	0x102	; 0x102 <lcd_puts>
     200:	0f b6       	in	r0, 0x3f	; 63
     202:	f8 94       	cli
     204:	de bf       	out	0x3e, r29	; 62
     206:	0f be       	out	0x3f, r0	; 63
     208:	cd bf       	out	0x3d, r28	; 61
     20a:	61 96       	adiw	r28, 0x11	; 17
     20c:	0f b6       	in	r0, 0x3f	; 63
     20e:	f8 94       	cli
     210:	de bf       	out	0x3e, r29	; 62
     212:	0f be       	out	0x3f, r0	; 63
     214:	cd bf       	out	0x3d, r28	; 61
     216:	df 91       	pop	r29
     218:	cf 91       	pop	r28
     21a:	1f 91       	pop	r17
     21c:	0f 91       	pop	r16
     21e:	ff 90       	pop	r15
     220:	ef 90       	pop	r14
     222:	df 90       	pop	r13
     224:	cf 90       	pop	r12
     226:	08 95       	ret

00000228 <is_valid_time>:
     228:	9c 01       	movw	r18, r24
     22a:	4c 33       	cpi	r20, 0x3C	; 60
     22c:	51 05       	cpc	r21, r1
     22e:	0c f5       	brge	.+66     	; 0x272 <is_valid_time+0x4a>
     230:	6c 33       	cpi	r22, 0x3C	; 60
     232:	71 05       	cpc	r23, r1
     234:	0c f5       	brge	.+66     	; 0x278 <is_valid_time+0x50>
     236:	80 91 60 00 	lds	r24, 0x0060	; 0x800060 <__DATA_REGION_ORIGIN__>
     23a:	90 91 61 00 	lds	r25, 0x0061	; 0x800061 <__DATA_REGION_ORIGIN__+0x1>
     23e:	89 2b       	or	r24, r25
     240:	49 f0       	breq	.+18     	; 0x254 <is_valid_time+0x2c>
     242:	51 e0       	ldi	r21, 0x01	; 1
     244:	40 e0       	ldi	r20, 0x00	; 0
     246:	28 31       	cpi	r18, 0x18	; 24
     248:	31 05       	cpc	r19, r1
     24a:	0c f0       	brlt	.+2      	; 0x24e <is_valid_time+0x26>
     24c:	50 e0       	ldi	r21, 0x00	; 0
     24e:	85 2f       	mov	r24, r21
     250:	94 2f       	mov	r25, r20
     252:	08 95       	ret
     254:	80 91 06 01 	lds	r24, 0x0106	; 0x800106 <civ>
     258:	90 91 07 01 	lds	r25, 0x0107	; 0x800107 <civ+0x1>
     25c:	00 97       	sbiw	r24, 0x00	; 0
     25e:	71 f0       	breq	.+28     	; 0x27c <is_valid_time+0x54>
     260:	51 e0       	ldi	r21, 0x01	; 1
     262:	40 e0       	ldi	r20, 0x00	; 0
     264:	2c 30       	cpi	r18, 0x0C	; 12
     266:	31 05       	cpc	r19, r1
     268:	0c f0       	brlt	.+2      	; 0x26c <is_valid_time+0x44>
     26a:	50 e0       	ldi	r21, 0x00	; 0
     26c:	85 2f       	mov	r24, r21
     26e:	94 2f       	mov	r25, r20
     270:	08 95       	ret
     272:	80 e0       	ldi	r24, 0x00	; 0
     274:	90 e0       	ldi	r25, 0x00	; 0
     276:	08 95       	ret
     278:	80 e0       	ldi	r24, 0x00	; 0
     27a:	90 e0       	ldi	r25, 0x00	; 0
     27c:	08 95       	ret

0000027e <is_leap_year>:
     27e:	9c 01       	movw	r18, r24
     280:	60 e9       	ldi	r22, 0x90	; 144
     282:	71 e0       	ldi	r23, 0x01	; 1
     284:	0e 94 c5 05 	call	0xb8a	; 0xb8a <__divmodhi4>
     288:	89 2b       	or	r24, r25
     28a:	91 f0       	breq	.+36     	; 0x2b0 <is_leap_year+0x32>
     28c:	c9 01       	movw	r24, r18
     28e:	83 70       	andi	r24, 0x03	; 3
     290:	99 27       	eor	r25, r25
     292:	89 2b       	or	r24, r25
     294:	81 f4       	brne	.+32     	; 0x2b6 <is_leap_year+0x38>
     296:	c9 01       	movw	r24, r18
     298:	64 e6       	ldi	r22, 0x64	; 100
     29a:	70 e0       	ldi	r23, 0x00	; 0
     29c:	0e 94 c5 05 	call	0xb8a	; 0xb8a <__divmodhi4>
     2a0:	21 e0       	ldi	r18, 0x01	; 1
     2a2:	30 e0       	ldi	r19, 0x00	; 0
     2a4:	89 2b       	or	r24, r25
     2a6:	09 f4       	brne	.+2      	; 0x2aa <is_leap_year+0x2c>
     2a8:	20 e0       	ldi	r18, 0x00	; 0
     2aa:	82 2f       	mov	r24, r18
     2ac:	93 2f       	mov	r25, r19
     2ae:	08 95       	ret
     2b0:	81 e0       	ldi	r24, 0x01	; 1
     2b2:	90 e0       	ldi	r25, 0x00	; 0
     2b4:	08 95       	ret
     2b6:	80 e0       	ldi	r24, 0x00	; 0
     2b8:	90 e0       	ldi	r25, 0x00	; 0
     2ba:	08 95       	ret

000002bc <is_valid_date>:
     2bc:	cf 93       	push	r28
     2be:	df 93       	push	r29
     2c0:	cd b7       	in	r28, 0x3d	; 61
     2c2:	de b7       	in	r29, 0x3e	; 62
     2c4:	6a 97       	sbiw	r28, 0x1a	; 26
     2c6:	0f b6       	in	r0, 0x3f	; 63
     2c8:	f8 94       	cli
     2ca:	de bf       	out	0x3e, r29	; 62
     2cc:	0f be       	out	0x3f, r0	; 63
     2ce:	cd bf       	out	0x3d, r28	; 61
     2d0:	2a e1       	ldi	r18, 0x1A	; 26
     2d2:	e2 e6       	ldi	r30, 0x62	; 98
     2d4:	f0 e0       	ldi	r31, 0x00	; 0
     2d6:	de 01       	movw	r26, r28
     2d8:	11 96       	adiw	r26, 0x01	; 1
     2da:	01 90       	ld	r0, Z+
     2dc:	0d 92       	st	X+, r0
     2de:	2a 95       	dec	r18
     2e0:	e1 f7       	brne	.-8      	; 0x2da <is_valid_date+0x1e>
     2e2:	82 30       	cpi	r24, 0x02	; 2
     2e4:	91 05       	cpc	r25, r1
     2e6:	71 f4       	brne	.+28     	; 0x304 <is_valid_date+0x48>
     2e8:	6d 31       	cpi	r22, 0x1D	; 29
     2ea:	71 05       	cpc	r23, r1
     2ec:	71 f4       	brne	.+28     	; 0x30a <is_valid_date+0x4e>
     2ee:	ca 01       	movw	r24, r20
     2f0:	0e 94 3f 01 	call	0x27e	; 0x27e <is_leap_year>
     2f4:	31 e0       	ldi	r19, 0x01	; 1
     2f6:	20 e0       	ldi	r18, 0x00	; 0
     2f8:	89 2b       	or	r24, r25
     2fa:	09 f4       	brne	.+2      	; 0x2fe <is_valid_date+0x42>
     2fc:	30 e0       	ldi	r19, 0x00	; 0
     2fe:	83 2f       	mov	r24, r19
     300:	92 2f       	mov	r25, r18
     302:	19 c0       	rjmp	.+50     	; 0x336 <is_valid_date+0x7a>
     304:	8d 30       	cpi	r24, 0x0D	; 13
     306:	91 05       	cpc	r25, r1
     308:	88 f4       	brcc	.+34     	; 0x32c <is_valid_date+0x70>
     30a:	16 16       	cp	r1, r22
     30c:	17 06       	cpc	r1, r23
     30e:	8c f4       	brge	.+34     	; 0x332 <is_valid_date+0x76>
     310:	88 0f       	add	r24, r24
     312:	99 1f       	adc	r25, r25
     314:	fe 01       	movw	r30, r28
     316:	e8 0f       	add	r30, r24
     318:	f9 1f       	adc	r31, r25
     31a:	81 e0       	ldi	r24, 0x01	; 1
     31c:	90 e0       	ldi	r25, 0x00	; 0
     31e:	21 81       	ldd	r18, Z+1	; 0x01
     320:	32 81       	ldd	r19, Z+2	; 0x02
     322:	26 17       	cp	r18, r22
     324:	37 07       	cpc	r19, r23
     326:	3c f4       	brge	.+14     	; 0x336 <is_valid_date+0x7a>
     328:	80 e0       	ldi	r24, 0x00	; 0
     32a:	05 c0       	rjmp	.+10     	; 0x336 <is_valid_date+0x7a>
     32c:	80 e0       	ldi	r24, 0x00	; 0
     32e:	90 e0       	ldi	r25, 0x00	; 0
     330:	02 c0       	rjmp	.+4      	; 0x336 <is_valid_date+0x7a>
     332:	80 e0       	ldi	r24, 0x00	; 0
     334:	90 e0       	ldi	r25, 0x00	; 0
     336:	6a 96       	adiw	r28, 0x1a	; 26
     338:	0f b6       	in	r0, 0x3f	; 63
     33a:	f8 94       	cli
     33c:	de bf       	out	0x3e, r29	; 62
     33e:	0f be       	out	0x3f, r0	; 63
     340:	cd bf       	out	0x3d, r28	; 61
     342:	df 91       	pop	r29
     344:	cf 91       	pop	r28
     346:	08 95       	ret

00000348 <date_counter>:
     348:	0f 93       	push	r16
     34a:	1f 93       	push	r17
     34c:	cf 93       	push	r28
     34e:	df 93       	push	r29
     350:	00 91 0e 01 	lds	r16, 0x010E	; 0x80010e <yy>
     354:	10 91 0f 01 	lds	r17, 0x010F	; 0x80010f <yy+0x1>
     358:	60 91 0a 01 	lds	r22, 0x010A	; 0x80010a <dd>
     35c:	70 91 0b 01 	lds	r23, 0x010B	; 0x80010b <dd+0x1>
     360:	6f 5f       	subi	r22, 0xFF	; 255
     362:	7f 4f       	sbci	r23, 0xFF	; 255
     364:	70 93 0b 01 	sts	0x010B, r23	; 0x80010b <dd+0x1>
     368:	60 93 0a 01 	sts	0x010A, r22	; 0x80010a <dd>
     36c:	c0 91 08 01 	lds	r28, 0x0108	; 0x800108 <mm>
     370:	d0 91 09 01 	lds	r29, 0x0109	; 0x800109 <mm+0x1>
     374:	a8 01       	movw	r20, r16
     376:	ce 01       	movw	r24, r28
     378:	0e 94 5e 01 	call	0x2bc	; 0x2bc <is_valid_date>
     37c:	89 2b       	or	r24, r25
     37e:	01 f5       	brne	.+64     	; 0x3c0 <date_counter+0x78>
     380:	81 e0       	ldi	r24, 0x01	; 1
     382:	90 e0       	ldi	r25, 0x00	; 0
     384:	90 93 0b 01 	sts	0x010B, r25	; 0x80010b <dd+0x1>
     388:	80 93 0a 01 	sts	0x010A, r24	; 0x80010a <dd>
     38c:	21 96       	adiw	r28, 0x01	; 1
     38e:	a8 01       	movw	r20, r16
     390:	61 e0       	ldi	r22, 0x01	; 1
     392:	70 e0       	ldi	r23, 0x00	; 0
     394:	ce 01       	movw	r24, r28
     396:	0e 94 5e 01 	call	0x2bc	; 0x2bc <is_valid_date>
     39a:	89 2b       	or	r24, r25
     39c:	29 f0       	breq	.+10     	; 0x3a8 <date_counter+0x60>
     39e:	d0 93 09 01 	sts	0x0109, r29	; 0x800109 <mm+0x1>
     3a2:	c0 93 08 01 	sts	0x0108, r28	; 0x800108 <mm>
     3a6:	0c c0       	rjmp	.+24     	; 0x3c0 <date_counter+0x78>
     3a8:	81 e0       	ldi	r24, 0x01	; 1
     3aa:	90 e0       	ldi	r25, 0x00	; 0
     3ac:	90 93 09 01 	sts	0x0109, r25	; 0x800109 <mm+0x1>
     3b0:	80 93 08 01 	sts	0x0108, r24	; 0x800108 <mm>
     3b4:	0f 5f       	subi	r16, 0xFF	; 255
     3b6:	1f 4f       	sbci	r17, 0xFF	; 255
     3b8:	10 93 0f 01 	sts	0x010F, r17	; 0x80010f <yy+0x1>
     3bc:	00 93 0e 01 	sts	0x010E, r16	; 0x80010e <yy>
     3c0:	df 91       	pop	r29
     3c2:	cf 91       	pop	r28
     3c4:	1f 91       	pop	r17
     3c6:	0f 91       	pop	r16
     3c8:	08 95       	ret

000003ca <time_counter>:
     3ca:	80 91 10 01 	lds	r24, 0x0110	; 0x800110 <sec>
     3ce:	90 91 11 01 	lds	r25, 0x0111	; 0x800111 <sec+0x1>
     3d2:	01 96       	adiw	r24, 0x01	; 1
     3d4:	8c 33       	cpi	r24, 0x3C	; 60
     3d6:	91 05       	cpc	r25, r1
     3d8:	29 f0       	breq	.+10     	; 0x3e4 <time_counter+0x1a>
     3da:	90 93 11 01 	sts	0x0111, r25	; 0x800111 <sec+0x1>
     3de:	80 93 10 01 	sts	0x0110, r24	; 0x800110 <sec>
     3e2:	08 95       	ret
     3e4:	10 92 11 01 	sts	0x0111, r1	; 0x800111 <sec+0x1>
     3e8:	10 92 10 01 	sts	0x0110, r1	; 0x800110 <sec>
     3ec:	80 91 0c 01 	lds	r24, 0x010C	; 0x80010c <min>
     3f0:	90 91 0d 01 	lds	r25, 0x010D	; 0x80010d <min+0x1>
     3f4:	01 96       	adiw	r24, 0x01	; 1
     3f6:	8c 33       	cpi	r24, 0x3C	; 60
     3f8:	91 05       	cpc	r25, r1
     3fa:	29 f0       	breq	.+10     	; 0x406 <__LOCK_REGION_LENGTH__+0x6>
     3fc:	90 93 0d 01 	sts	0x010D, r25	; 0x80010d <min+0x1>
     400:	80 93 0c 01 	sts	0x010C, r24	; 0x80010c <min>
     404:	08 95       	ret
     406:	10 92 0d 01 	sts	0x010D, r1	; 0x80010d <min+0x1>
     40a:	10 92 0c 01 	sts	0x010C, r1	; 0x80010c <min>
     40e:	80 91 12 01 	lds	r24, 0x0112	; 0x800112 <h>
     412:	90 91 13 01 	lds	r25, 0x0113	; 0x800113 <h+0x1>
     416:	01 96       	adiw	r24, 0x01	; 1
     418:	90 93 13 01 	sts	0x0113, r25	; 0x800113 <h+0x1>
     41c:	80 93 12 01 	sts	0x0112, r24	; 0x800112 <h>
     420:	20 91 60 00 	lds	r18, 0x0060	; 0x800060 <__DATA_REGION_ORIGIN__>
     424:	30 91 61 00 	lds	r19, 0x0061	; 0x800061 <__DATA_REGION_ORIGIN__+0x1>
     428:	23 2b       	or	r18, r19
     42a:	09 f1       	breq	.+66     	; 0x46e <__LOCK_REGION_LENGTH__+0x6e>
     42c:	8c 30       	cpi	r24, 0x0C	; 12
     42e:	91 05       	cpc	r25, r1
     430:	59 f4       	brne	.+22     	; 0x448 <__LOCK_REGION_LENGTH__+0x48>
     432:	81 e0       	ldi	r24, 0x01	; 1
     434:	90 e0       	ldi	r25, 0x00	; 0
     436:	90 93 03 01 	sts	0x0103, r25	; 0x800103 <__data_end+0x1>
     43a:	80 93 02 01 	sts	0x0102, r24	; 0x800102 <__data_end>
     43e:	10 92 05 01 	sts	0x0105, r1	; 0x800105 <am+0x1>
     442:	10 92 04 01 	sts	0x0104, r1	; 0x800104 <am>
     446:	08 95       	ret
     448:	48 97       	sbiw	r24, 0x18	; 24
     44a:	f9 f4       	brne	.+62     	; 0x48a <__LOCK_REGION_LENGTH__+0x8a>
     44c:	10 92 13 01 	sts	0x0113, r1	; 0x800113 <h+0x1>
     450:	10 92 12 01 	sts	0x0112, r1	; 0x800112 <h>
     454:	10 92 03 01 	sts	0x0103, r1	; 0x800103 <__data_end+0x1>
     458:	10 92 02 01 	sts	0x0102, r1	; 0x800102 <__data_end>
     45c:	81 e0       	ldi	r24, 0x01	; 1
     45e:	90 e0       	ldi	r25, 0x00	; 0
     460:	90 93 05 01 	sts	0x0105, r25	; 0x800105 <am+0x1>
     464:	80 93 04 01 	sts	0x0104, r24	; 0x800104 <am>
     468:	0e 94 a4 01 	call	0x348	; 0x348 <date_counter>
     46c:	08 95       	ret
     46e:	0c 97       	sbiw	r24, 0x0c	; 12
     470:	61 f4       	brne	.+24     	; 0x48a <__LOCK_REGION_LENGTH__+0x8a>
     472:	0e 94 a4 01 	call	0x348	; 0x348 <date_counter>
     476:	10 92 03 01 	sts	0x0103, r1	; 0x800103 <__data_end+0x1>
     47a:	10 92 02 01 	sts	0x0102, r1	; 0x800102 <__data_end>
     47e:	81 e0       	ldi	r24, 0x01	; 1
     480:	90 e0       	ldi	r25, 0x00	; 0
     482:	90 93 05 01 	sts	0x0105, r25	; 0x800105 <am+0x1>
     486:	80 93 04 01 	sts	0x0104, r24	; 0x800104 <am>
     48a:	08 95       	ret

0000048c <key_to_num>:
     48c:	84 30       	cpi	r24, 0x04	; 4
     48e:	91 05       	cpc	r25, r1
     490:	64 f0       	brlt	.+24     	; 0x4aa <key_to_num+0x1e>
     492:	88 30       	cpi	r24, 0x08	; 8
     494:	91 05       	cpc	r25, r1
     496:	14 f4       	brge	.+4      	; 0x49c <key_to_num+0x10>
     498:	01 97       	sbiw	r24, 0x01	; 1
     49a:	08 95       	ret
     49c:	8c 30       	cpi	r24, 0x0C	; 12
     49e:	91 05       	cpc	r25, r1
     4a0:	14 f4       	brge	.+4      	; 0x4a6 <key_to_num+0x1a>
     4a2:	02 97       	sbiw	r24, 0x02	; 2
     4a4:	08 95       	ret
     4a6:	80 e0       	ldi	r24, 0x00	; 0
     4a8:	90 e0       	ldi	r25, 0x00	; 0
     4aa:	08 95       	ret

000004ac <is_number>:
     4ac:	cf 93       	push	r28
     4ae:	df 93       	push	r29
     4b0:	cd b7       	in	r28, 0x3d	; 61
     4b2:	de b7       	in	r29, 0x3e	; 62
     4b4:	64 97       	sbiw	r28, 0x14	; 20
     4b6:	0f b6       	in	r0, 0x3f	; 63
     4b8:	f8 94       	cli
     4ba:	de bf       	out	0x3e, r29	; 62
     4bc:	0f be       	out	0x3f, r0	; 63
     4be:	cd bf       	out	0x3d, r28	; 61
     4c0:	24 e1       	ldi	r18, 0x14	; 20
     4c2:	ec e7       	ldi	r30, 0x7C	; 124
     4c4:	f0 e0       	ldi	r31, 0x00	; 0
     4c6:	de 01       	movw	r26, r28
     4c8:	11 96       	adiw	r26, 0x01	; 1
     4ca:	01 90       	ld	r0, Z+
     4cc:	0d 92       	st	X+, r0
     4ce:	2a 95       	dec	r18
     4d0:	e1 f7       	brne	.-8      	; 0x4ca <is_number+0x1e>
     4d2:	29 81       	ldd	r18, Y+1	; 0x01
     4d4:	3a 81       	ldd	r19, Y+2	; 0x02
     4d6:	82 17       	cp	r24, r18
     4d8:	93 07       	cpc	r25, r19
     4da:	81 f0       	breq	.+32     	; 0x4fc <is_number+0x50>
     4dc:	fe 01       	movw	r30, r28
     4de:	33 96       	adiw	r30, 0x03	; 3
     4e0:	ae 01       	movw	r20, r28
     4e2:	4b 5e       	subi	r20, 0xEB	; 235
     4e4:	5f 4f       	sbci	r21, 0xFF	; 255
     4e6:	21 91       	ld	r18, Z+
     4e8:	31 91       	ld	r19, Z+
     4ea:	28 17       	cp	r18, r24
     4ec:	39 07       	cpc	r19, r25
     4ee:	49 f0       	breq	.+18     	; 0x502 <is_number+0x56>
     4f0:	e4 17       	cp	r30, r20
     4f2:	f5 07       	cpc	r31, r21
     4f4:	c1 f7       	brne	.-16     	; 0x4e6 <is_number+0x3a>
     4f6:	80 e0       	ldi	r24, 0x00	; 0
     4f8:	90 e0       	ldi	r25, 0x00	; 0
     4fa:	05 c0       	rjmp	.+10     	; 0x506 <is_number+0x5a>
     4fc:	81 e0       	ldi	r24, 0x01	; 1
     4fe:	90 e0       	ldi	r25, 0x00	; 0
     500:	02 c0       	rjmp	.+4      	; 0x506 <is_number+0x5a>
     502:	81 e0       	ldi	r24, 0x01	; 1
     504:	90 e0       	ldi	r25, 0x00	; 0
     506:	64 96       	adiw	r28, 0x14	; 20
     508:	0f b6       	in	r0, 0x3f	; 63
     50a:	f8 94       	cli
     50c:	de bf       	out	0x3e, r29	; 62
     50e:	0f be       	out	0x3f, r0	; 63
     510:	cd bf       	out	0x3d, r28	; 61
     512:	df 91       	pop	r29
     514:	cf 91       	pop	r28
     516:	08 95       	ret

00000518 <display>:
     518:	0f 93       	push	r16
     51a:	1f 93       	push	r17
     51c:	cf 93       	push	r28
     51e:	df 93       	push	r29
     520:	cd b7       	in	r28, 0x3d	; 61
     522:	de b7       	in	r29, 0x3e	; 62
     524:	61 97       	sbiw	r28, 0x11	; 17
     526:	0f b6       	in	r0, 0x3f	; 63
     528:	f8 94       	cli
     52a:	de bf       	out	0x3e, r29	; 62
     52c:	0f be       	out	0x3f, r0	; 63
     52e:	cd bf       	out	0x3d, r28	; 61
     530:	8b 01       	movw	r16, r22
     532:	60 e0       	ldi	r22, 0x00	; 0
     534:	0e 94 6d 00 	call	0xda	; 0xda <lcd_pos>
     538:	b8 01       	movw	r22, r16
     53a:	ce 01       	movw	r24, r28
     53c:	01 96       	adiw	r24, 0x01	; 1
     53e:	0e 94 ed 05 	call	0xbda	; 0xbda <strcpy>
     542:	ce 01       	movw	r24, r28
     544:	01 96       	adiw	r24, 0x01	; 1
     546:	0e 94 81 00 	call	0x102	; 0x102 <lcd_puts>
     54a:	61 96       	adiw	r28, 0x11	; 17
     54c:	0f b6       	in	r0, 0x3f	; 63
     54e:	f8 94       	cli
     550:	de bf       	out	0x3e, r29	; 62
     552:	0f be       	out	0x3f, r0	; 63
     554:	cd bf       	out	0x3d, r28	; 61
     556:	df 91       	pop	r29
     558:	cf 91       	pop	r28
     55a:	1f 91       	pop	r17
     55c:	0f 91       	pop	r16
     55e:	08 95       	ret

00000560 <is_pressed>:
     560:	14 ba       	out	0x14, r1	; 20
     562:	15 ba       	out	0x15, r1	; 21
     564:	95 b3       	in	r25, 0x15	; 21
     566:	21 e0       	ldi	r18, 0x01	; 1
     568:	30 e0       	ldi	r19, 0x00	; 0
     56a:	a9 01       	movw	r20, r18
     56c:	08 2e       	mov	r0, r24
     56e:	02 c0       	rjmp	.+4      	; 0x574 <is_pressed+0x14>
     570:	44 0f       	add	r20, r20
     572:	55 1f       	adc	r21, r21
     574:	0a 94       	dec	r0
     576:	e2 f7       	brpl	.-8      	; 0x570 <is_pressed+0x10>
     578:	94 2b       	or	r25, r20
     57a:	95 bb       	out	0x15, r25	; 21
     57c:	94 b3       	in	r25, 0x14	; 20
     57e:	6c 5f       	subi	r22, 0xFC	; 252
     580:	7f 4f       	sbci	r23, 0xFF	; 255
     582:	02 c0       	rjmp	.+4      	; 0x588 <is_pressed+0x28>
     584:	22 0f       	add	r18, r18
     586:	33 1f       	adc	r19, r19
     588:	6a 95       	dec	r22
     58a:	e2 f7       	brpl	.-8      	; 0x584 <is_pressed+0x24>
     58c:	29 2b       	or	r18, r25
     58e:	24 bb       	out	0x14, r18	; 20
     590:	95 b3       	in	r25, 0x15	; 21
     592:	40 95       	com	r20
     594:	49 23       	and	r20, r25
     596:	45 bb       	out	0x15, r20	; 21
     598:	23 b3       	in	r18, 0x13	; 19
     59a:	30 e0       	ldi	r19, 0x00	; 0
     59c:	02 c0       	rjmp	.+4      	; 0x5a2 <is_pressed+0x42>
     59e:	35 95       	asr	r19
     5a0:	27 95       	ror	r18
     5a2:	8a 95       	dec	r24
     5a4:	e2 f7       	brpl	.-8      	; 0x59e <is_pressed+0x3e>
     5a6:	81 e0       	ldi	r24, 0x01	; 1
     5a8:	90 e0       	ldi	r25, 0x00	; 0
     5aa:	20 ff       	sbrs	r18, 0
     5ac:	02 c0       	rjmp	.+4      	; 0x5b2 <is_pressed+0x52>
     5ae:	80 e0       	ldi	r24, 0x00	; 0
     5b0:	90 e0       	ldi	r25, 0x00	; 0
     5b2:	08 95       	ret

000005b4 <get_key>:
     5b4:	0f 93       	push	r16
     5b6:	1f 93       	push	r17
     5b8:	cf 93       	push	r28
     5ba:	df 93       	push	r29
     5bc:	00 e0       	ldi	r16, 0x00	; 0
     5be:	10 e0       	ldi	r17, 0x00	; 0
     5c0:	18 c0       	rjmp	.+48     	; 0x5f2 <get_key+0x3e>
     5c2:	be 01       	movw	r22, r28
     5c4:	c8 01       	movw	r24, r16
     5c6:	0e 94 b0 02 	call	0x560	; 0x560 <is_pressed>
     5ca:	89 2b       	or	r24, r25
     5cc:	49 f0       	breq	.+18     	; 0x5e0 <get_key+0x2c>
     5ce:	c8 01       	movw	r24, r16
     5d0:	88 0f       	add	r24, r24
     5d2:	99 1f       	adc	r25, r25
     5d4:	88 0f       	add	r24, r24
     5d6:	99 1f       	adc	r25, r25
     5d8:	01 96       	adiw	r24, 0x01	; 1
     5da:	8c 0f       	add	r24, r28
     5dc:	9d 1f       	adc	r25, r29
     5de:	0e c0       	rjmp	.+28     	; 0x5fc <get_key+0x48>
     5e0:	21 96       	adiw	r28, 0x01	; 1
     5e2:	c4 30       	cpi	r28, 0x04	; 4
     5e4:	d1 05       	cpc	r29, r1
     5e6:	69 f7       	brne	.-38     	; 0x5c2 <get_key+0xe>
     5e8:	0f 5f       	subi	r16, 0xFF	; 255
     5ea:	1f 4f       	sbci	r17, 0xFF	; 255
     5ec:	04 30       	cpi	r16, 0x04	; 4
     5ee:	11 05       	cpc	r17, r1
     5f0:	19 f0       	breq	.+6      	; 0x5f8 <get_key+0x44>
     5f2:	c0 e0       	ldi	r28, 0x00	; 0
     5f4:	d0 e0       	ldi	r29, 0x00	; 0
     5f6:	e5 cf       	rjmp	.-54     	; 0x5c2 <get_key+0xe>
     5f8:	8f ef       	ldi	r24, 0xFF	; 255
     5fa:	9f ef       	ldi	r25, 0xFF	; 255
     5fc:	df 91       	pop	r29
     5fe:	cf 91       	pop	r28
     600:	1f 91       	pop	r17
     602:	0f 91       	pop	r16
     604:	08 95       	ret

00000606 <avr_wait>:
     606:	9c 01       	movw	r18, r24
     608:	83 e0       	ldi	r24, 0x03	; 3
     60a:	83 bf       	out	0x33, r24	; 51
     60c:	83 e8       	ldi	r24, 0x83	; 131
     60e:	08 c0       	rjmp	.+16     	; 0x620 <avr_wait+0x1a>
     610:	82 bf       	out	0x32, r24	; 50
     612:	98 b7       	in	r25, 0x38	; 56
     614:	91 60       	ori	r25, 0x01	; 1
     616:	98 bf       	out	0x38, r25	; 56
     618:	a8 95       	wdr
     61a:	08 b6       	in	r0, 0x38	; 56
     61c:	00 fe       	sbrs	r0, 0
     61e:	fd cf       	rjmp	.-6      	; 0x61a <avr_wait+0x14>
     620:	21 50       	subi	r18, 0x01	; 1
     622:	31 09       	sbc	r19, r1
     624:	a8 f7       	brcc	.-22     	; 0x610 <avr_wait+0xa>
     626:	13 be       	out	0x33, r1	; 51
     628:	08 95       	ret

0000062a <lcd_init>:
     62a:	b8 9a       	sbi	0x17, 0	; 23
     62c:	b9 9a       	sbi	0x17, 1	; 23
     62e:	ba 9a       	sbi	0x17, 2	; 23
     630:	80 e1       	ldi	r24, 0x10	; 16
     632:	90 e0       	ldi	r25, 0x00	; 0
     634:	0e 94 03 03 	call	0x606	; 0x606 <avr_wait>
     638:	60 e0       	ldi	r22, 0x00	; 0
     63a:	80 e3       	ldi	r24, 0x30	; 48
     63c:	0e 94 49 00 	call	0x92	; 0x92 <output>
     640:	85 e0       	ldi	r24, 0x05	; 5
     642:	90 e0       	ldi	r25, 0x00	; 0
     644:	0e 94 03 03 	call	0x606	; 0x606 <avr_wait>
     648:	60 e0       	ldi	r22, 0x00	; 0
     64a:	80 e3       	ldi	r24, 0x30	; 48
     64c:	0e 94 49 00 	call	0x92	; 0x92 <output>
     650:	81 e0       	ldi	r24, 0x01	; 1
     652:	90 e0       	ldi	r25, 0x00	; 0
     654:	0e 94 03 03 	call	0x606	; 0x606 <avr_wait>
     658:	60 e0       	ldi	r22, 0x00	; 0
     65a:	8c e3       	ldi	r24, 0x3C	; 60
     65c:	0e 94 58 00 	call	0xb0	; 0xb0 <write>
     660:	60 e0       	ldi	r22, 0x00	; 0
     662:	8c e0       	ldi	r24, 0x0C	; 12
     664:	0e 94 58 00 	call	0xb0	; 0xb0 <write>
     668:	60 e0       	ldi	r22, 0x00	; 0
     66a:	86 e0       	ldi	r24, 0x06	; 6
     66c:	0e 94 58 00 	call	0xb0	; 0xb0 <write>
     670:	60 e0       	ldi	r22, 0x00	; 0
     672:	81 e0       	ldi	r24, 0x01	; 1
     674:	0e 94 58 00 	call	0xb0	; 0xb0 <write>
     678:	08 95       	ret

0000067a <set_d>:
     67a:	6f 92       	push	r6
     67c:	7f 92       	push	r7
     67e:	8f 92       	push	r8
     680:	9f 92       	push	r9
     682:	bf 92       	push	r11
     684:	cf 92       	push	r12
     686:	df 92       	push	r13
     688:	ef 92       	push	r14
     68a:	ff 92       	push	r15
     68c:	0f 93       	push	r16
     68e:	1f 93       	push	r17
     690:	cf 93       	push	r28
     692:	df 93       	push	r29
     694:	cd b7       	in	r28, 0x3d	; 61
     696:	de b7       	in	r29, 0x3e	; 62
     698:	a1 97       	sbiw	r28, 0x21	; 33
     69a:	0f b6       	in	r0, 0x3f	; 63
     69c:	f8 94       	cli
     69e:	de bf       	out	0x3e, r29	; 62
     6a0:	0f be       	out	0x3f, r0	; 63
     6a2:	cd bf       	out	0x3d, r28	; 61
     6a4:	0e 94 da 02 	call	0x5b4	; 0x5b4 <get_key>
     6a8:	fe 01       	movw	r30, r28
     6aa:	72 96       	adiw	r30, 0x12	; 18
     6ac:	80 e1       	ldi	r24, 0x10	; 16
     6ae:	df 01       	movw	r26, r30
     6b0:	1d 92       	st	X+, r1
     6b2:	8a 95       	dec	r24
     6b4:	e9 f7       	brne	.-6      	; 0x6b0 <set_d+0x36>
     6b6:	61 2c       	mov	r6, r1
     6b8:	71 2c       	mov	r7, r1
     6ba:	08 ee       	ldi	r16, 0xE8	; 232
     6bc:	13 e0       	ldi	r17, 0x03	; 3
     6be:	0f 2e       	mov	r0, r31
     6c0:	f4 e6       	ldi	r31, 0x64	; 100
     6c2:	bf 2e       	mov	r11, r31
     6c4:	f0 2d       	mov	r31, r0
     6c6:	ee 24       	eor	r14, r14
     6c8:	e3 94       	inc	r14
     6ca:	f1 2c       	mov	r15, r1
     6cc:	0f 2e       	mov	r0, r31
     6ce:	fe ea       	ldi	r31, 0xAE	; 174
     6d0:	cf 2e       	mov	r12, r31
     6d2:	f0 e0       	ldi	r31, 0x00	; 0
     6d4:	df 2e       	mov	r13, r31
     6d6:	f0 2d       	mov	r31, r0
     6d8:	3c c0       	rjmp	.+120    	; 0x752 <set_d+0xd8>
     6da:	61 e0       	ldi	r22, 0x01	; 1
     6dc:	66 0d       	add	r22, r6
     6de:	80 e0       	ldi	r24, 0x00	; 0
     6e0:	0e 94 6d 00 	call	0xda	; 0xda <lcd_pos>
     6e4:	0e 94 da 02 	call	0x5b4	; 0x5b4 <get_key>
     6e8:	4c 01       	movw	r8, r24
     6ea:	0e 94 56 02 	call	0x4ac	; 0x4ac <is_number>
     6ee:	89 2b       	or	r24, r25
     6f0:	81 f1       	breq	.+96     	; 0x752 <set_d+0xd8>
     6f2:	c4 01       	movw	r24, r8
     6f4:	0e 94 46 02 	call	0x48c	; 0x48c <key_to_num>
     6f8:	88 2e       	mov	r8, r24
     6fa:	99 2e       	mov	r9, r25
     6fc:	9f 93       	push	r25
     6fe:	8f 93       	push	r24
     700:	df 92       	push	r13
     702:	cf 92       	push	r12
     704:	81 e0       	ldi	r24, 0x01	; 1
     706:	90 e0       	ldi	r25, 0x00	; 0
     708:	8c 0f       	add	r24, r28
     70a:	9d 1f       	adc	r25, r29
     70c:	9f 93       	push	r25
     70e:	8f 93       	push	r24
     710:	0e 94 f4 05 	call	0xbe8	; 0xbe8 <sprintf>
     714:	ce 01       	movw	r24, r28
     716:	01 96       	adiw	r24, 0x01	; 1
     718:	0e 94 81 00 	call	0x102	; 0x102 <lcd_puts>
     71c:	8c e2       	ldi	r24, 0x2C	; 44
     71e:	91 e0       	ldi	r25, 0x01	; 1
     720:	0e 94 03 03 	call	0x606	; 0x606 <avr_wait>
     724:	f3 01       	movw	r30, r6
     726:	ee 0f       	add	r30, r30
     728:	ff 1f       	adc	r31, r31
     72a:	a1 e0       	ldi	r26, 0x01	; 1
     72c:	b0 e0       	ldi	r27, 0x00	; 0
     72e:	ac 0f       	add	r26, r28
     730:	bd 1f       	adc	r27, r29
     732:	ea 0f       	add	r30, r26
     734:	fb 1f       	adc	r31, r27
     736:	81 8a       	std	Z+17, r8	; 0x11
     738:	92 8a       	std	Z+18, r9	; 0x12
     73a:	bf ef       	ldi	r27, 0xFF	; 255
     73c:	6b 1a       	sub	r6, r27
     73e:	7b 0a       	sbc	r7, r27
     740:	0f 90       	pop	r0
     742:	0f 90       	pop	r0
     744:	0f 90       	pop	r0
     746:	0f 90       	pop	r0
     748:	0f 90       	pop	r0
     74a:	0f 90       	pop	r0
     74c:	02 c0       	rjmp	.+4      	; 0x752 <set_d+0xd8>
     74e:	61 2c       	mov	r6, r1
     750:	71 2c       	mov	r7, r1
     752:	88 e0       	ldi	r24, 0x08	; 8
     754:	68 16       	cp	r6, r24
     756:	71 04       	cpc	r7, r1
     758:	0c f4       	brge	.+2      	; 0x75c <set_d+0xe2>
     75a:	bf cf       	rjmp	.-130    	; 0x6da <set_d+0x60>
     75c:	2a 89       	ldd	r18, Y+18	; 0x12
     75e:	3b 89       	ldd	r19, Y+19	; 0x13
     760:	c9 01       	movw	r24, r18
     762:	88 0f       	add	r24, r24
     764:	99 1f       	adc	r25, r25
     766:	22 0f       	add	r18, r18
     768:	33 1f       	adc	r19, r19
     76a:	22 0f       	add	r18, r18
     76c:	33 1f       	adc	r19, r19
     76e:	22 0f       	add	r18, r18
     770:	33 1f       	adc	r19, r19
     772:	28 0f       	add	r18, r24
     774:	39 1f       	adc	r19, r25
     776:	8c 89       	ldd	r24, Y+20	; 0x14
     778:	9d 89       	ldd	r25, Y+21	; 0x15
     77a:	82 0f       	add	r24, r18
     77c:	93 1f       	adc	r25, r19
     77e:	90 93 09 01 	sts	0x0109, r25	; 0x800109 <mm+0x1>
     782:	80 93 08 01 	sts	0x0108, r24	; 0x800108 <mm>
     786:	2e 89       	ldd	r18, Y+22	; 0x16
     788:	3f 89       	ldd	r19, Y+23	; 0x17
     78a:	b9 01       	movw	r22, r18
     78c:	66 0f       	add	r22, r22
     78e:	77 1f       	adc	r23, r23
     790:	22 0f       	add	r18, r18
     792:	33 1f       	adc	r19, r19
     794:	22 0f       	add	r18, r18
     796:	33 1f       	adc	r19, r19
     798:	22 0f       	add	r18, r18
     79a:	33 1f       	adc	r19, r19
     79c:	26 0f       	add	r18, r22
     79e:	37 1f       	adc	r19, r23
     7a0:	68 8d       	ldd	r22, Y+24	; 0x18
     7a2:	79 8d       	ldd	r23, Y+25	; 0x19
     7a4:	62 0f       	add	r22, r18
     7a6:	73 1f       	adc	r23, r19
     7a8:	70 93 0b 01 	sts	0x010B, r23	; 0x80010b <dd+0x1>
     7ac:	60 93 0a 01 	sts	0x010A, r22	; 0x80010a <dd>
     7b0:	2a 8d       	ldd	r18, Y+26	; 0x1a
     7b2:	3b 8d       	ldd	r19, Y+27	; 0x1b
     7b4:	20 9f       	mul	r18, r16
     7b6:	a0 01       	movw	r20, r0
     7b8:	21 9f       	mul	r18, r17
     7ba:	50 0d       	add	r21, r0
     7bc:	30 9f       	mul	r19, r16
     7be:	50 0d       	add	r21, r0
     7c0:	11 24       	eor	r1, r1
     7c2:	ec 8d       	ldd	r30, Y+28	; 0x1c
     7c4:	fd 8d       	ldd	r31, Y+29	; 0x1d
     7c6:	be 9e       	mul	r11, r30
     7c8:	90 01       	movw	r18, r0
     7ca:	bf 9e       	mul	r11, r31
     7cc:	30 0d       	add	r19, r0
     7ce:	11 24       	eor	r1, r1
     7d0:	42 0f       	add	r20, r18
     7d2:	53 1f       	adc	r21, r19
     7d4:	2e 8d       	ldd	r18, Y+30	; 0x1e
     7d6:	3f 8d       	ldd	r19, Y+31	; 0x1f
     7d8:	d9 01       	movw	r26, r18
     7da:	aa 0f       	add	r26, r26
     7dc:	bb 1f       	adc	r27, r27
     7de:	f9 01       	movw	r30, r18
     7e0:	ee 0f       	add	r30, r30
     7e2:	ff 1f       	adc	r31, r31
     7e4:	ee 0f       	add	r30, r30
     7e6:	ff 1f       	adc	r31, r31
     7e8:	ee 0f       	add	r30, r30
     7ea:	ff 1f       	adc	r31, r31
     7ec:	9d 01       	movw	r18, r26
     7ee:	2e 0f       	add	r18, r30
     7f0:	3f 1f       	adc	r19, r31
     7f2:	24 0f       	add	r18, r20
     7f4:	35 1f       	adc	r19, r21
     7f6:	48 a1       	ldd	r20, Y+32	; 0x20
     7f8:	59 a1       	ldd	r21, Y+33	; 0x21
     7fa:	42 0f       	add	r20, r18
     7fc:	53 1f       	adc	r21, r19
     7fe:	50 93 0f 01 	sts	0x010F, r21	; 0x80010f <yy+0x1>
     802:	40 93 0e 01 	sts	0x010E, r20	; 0x80010e <yy>
     806:	0e 94 5e 01 	call	0x2bc	; 0x2bc <is_valid_date>
     80a:	89 2b       	or	r24, r25
     80c:	89 f5       	brne	.+98     	; 0x870 <__stack+0x11>
     80e:	0e 94 68 00 	call	0xd0	; 0xd0 <lcd_clr>
     812:	61 eb       	ldi	r22, 0xB1	; 177
     814:	70 e0       	ldi	r23, 0x00	; 0
     816:	80 e0       	ldi	r24, 0x00	; 0
     818:	90 e0       	ldi	r25, 0x00	; 0
     81a:	0e 94 8c 02 	call	0x518	; 0x518 <display>
     81e:	8c ed       	ldi	r24, 0xDC	; 220
     820:	95 e0       	ldi	r25, 0x05	; 5
     822:	0e 94 03 03 	call	0x606	; 0x606 <avr_wait>
     826:	0e 94 68 00 	call	0xd0	; 0xd0 <lcd_clr>
     82a:	f0 92 61 00 	sts	0x0061, r15	; 0x800061 <__DATA_REGION_ORIGIN__+0x1>
     82e:	e0 92 60 00 	sts	0x0060, r14	; 0x800060 <__DATA_REGION_ORIGIN__>
     832:	10 92 07 01 	sts	0x0107, r1	; 0x800107 <civ+0x1>
     836:	10 92 06 01 	sts	0x0106, r1	; 0x800106 <civ>
     83a:	10 92 05 01 	sts	0x0105, r1	; 0x800105 <am+0x1>
     83e:	10 92 04 01 	sts	0x0104, r1	; 0x800104 <am>
     842:	10 92 03 01 	sts	0x0103, r1	; 0x800103 <__data_end+0x1>
     846:	10 92 02 01 	sts	0x0102, r1	; 0x800102 <__data_end>
     84a:	0e 94 3d 03 	call	0x67a	; 0x67a <set_d>
     84e:	40 91 0e 01 	lds	r20, 0x010E	; 0x80010e <yy>
     852:	50 91 0f 01 	lds	r21, 0x010F	; 0x80010f <yy+0x1>
     856:	60 91 0a 01 	lds	r22, 0x010A	; 0x80010a <dd>
     85a:	70 91 0b 01 	lds	r23, 0x010B	; 0x80010b <dd+0x1>
     85e:	80 91 08 01 	lds	r24, 0x0108	; 0x800108 <mm>
     862:	90 91 09 01 	lds	r25, 0x0109	; 0x800109 <mm+0x1>
     866:	0e 94 5e 01 	call	0x2bc	; 0x2bc <is_valid_date>
     86a:	89 2b       	or	r24, r25
     86c:	09 f4       	brne	.+2      	; 0x870 <__stack+0x11>
     86e:	6f cf       	rjmp	.-290    	; 0x74e <set_d+0xd4>
     870:	a1 96       	adiw	r28, 0x21	; 33
     872:	0f b6       	in	r0, 0x3f	; 63
     874:	f8 94       	cli
     876:	de bf       	out	0x3e, r29	; 62
     878:	0f be       	out	0x3f, r0	; 63
     87a:	cd bf       	out	0x3d, r28	; 61
     87c:	df 91       	pop	r29
     87e:	cf 91       	pop	r28
     880:	1f 91       	pop	r17
     882:	0f 91       	pop	r16
     884:	ff 90       	pop	r15
     886:	ef 90       	pop	r14
     888:	df 90       	pop	r13
     88a:	cf 90       	pop	r12
     88c:	bf 90       	pop	r11
     88e:	9f 90       	pop	r9
     890:	8f 90       	pop	r8
     892:	7f 90       	pop	r7
     894:	6f 90       	pop	r6
     896:	08 95       	ret

00000898 <set_t>:
     898:	af 92       	push	r10
     89a:	bf 92       	push	r11
     89c:	cf 92       	push	r12
     89e:	df 92       	push	r13
     8a0:	ef 92       	push	r14
     8a2:	ff 92       	push	r15
     8a4:	0f 93       	push	r16
     8a6:	1f 93       	push	r17
     8a8:	cf 93       	push	r28
     8aa:	df 93       	push	r29
     8ac:	cd b7       	in	r28, 0x3d	; 61
     8ae:	de b7       	in	r29, 0x3e	; 62
     8b0:	6d 97       	sbiw	r28, 0x1d	; 29
     8b2:	0f b6       	in	r0, 0x3f	; 63
     8b4:	f8 94       	cli
     8b6:	de bf       	out	0x3e, r29	; 62
     8b8:	0f be       	out	0x3f, r0	; 63
     8ba:	cd bf       	out	0x3d, r28	; 61
     8bc:	0e 94 da 02 	call	0x5b4	; 0x5b4 <get_key>
     8c0:	fe 01       	movw	r30, r28
     8c2:	72 96       	adiw	r30, 0x12	; 18
     8c4:	8c e0       	ldi	r24, 0x0C	; 12
     8c6:	df 01       	movw	r26, r30
     8c8:	1d 92       	st	X+, r1
     8ca:	8a 95       	dec	r24
     8cc:	e9 f7       	brne	.-6      	; 0x8c8 <set_t+0x30>
     8ce:	c1 2c       	mov	r12, r1
     8d0:	d1 2c       	mov	r13, r1
     8d2:	01 e0       	ldi	r16, 0x01	; 1
     8d4:	10 e0       	ldi	r17, 0x00	; 0
     8d6:	0f 2e       	mov	r0, r31
     8d8:	fe ea       	ldi	r31, 0xAE	; 174
     8da:	ef 2e       	mov	r14, r31
     8dc:	f0 e0       	ldi	r31, 0x00	; 0
     8de:	ff 2e       	mov	r15, r31
     8e0:	f0 2d       	mov	r31, r0
     8e2:	3c c0       	rjmp	.+120    	; 0x95c <set_t+0xc4>
     8e4:	61 e0       	ldi	r22, 0x01	; 1
     8e6:	6c 0d       	add	r22, r12
     8e8:	81 e0       	ldi	r24, 0x01	; 1
     8ea:	0e 94 6d 00 	call	0xda	; 0xda <lcd_pos>
     8ee:	0e 94 da 02 	call	0x5b4	; 0x5b4 <get_key>
     8f2:	5c 01       	movw	r10, r24
     8f4:	0e 94 56 02 	call	0x4ac	; 0x4ac <is_number>
     8f8:	89 2b       	or	r24, r25
     8fa:	81 f1       	breq	.+96     	; 0x95c <set_t+0xc4>
     8fc:	c5 01       	movw	r24, r10
     8fe:	0e 94 46 02 	call	0x48c	; 0x48c <key_to_num>
     902:	a8 2e       	mov	r10, r24
     904:	b9 2e       	mov	r11, r25
     906:	9f 93       	push	r25
     908:	8f 93       	push	r24
     90a:	ff 92       	push	r15
     90c:	ef 92       	push	r14
     90e:	81 e0       	ldi	r24, 0x01	; 1
     910:	90 e0       	ldi	r25, 0x00	; 0
     912:	8c 0f       	add	r24, r28
     914:	9d 1f       	adc	r25, r29
     916:	9f 93       	push	r25
     918:	8f 93       	push	r24
     91a:	0e 94 f4 05 	call	0xbe8	; 0xbe8 <sprintf>
     91e:	ce 01       	movw	r24, r28
     920:	01 96       	adiw	r24, 0x01	; 1
     922:	0e 94 81 00 	call	0x102	; 0x102 <lcd_puts>
     926:	8c e2       	ldi	r24, 0x2C	; 44
     928:	91 e0       	ldi	r25, 0x01	; 1
     92a:	0e 94 03 03 	call	0x606	; 0x606 <avr_wait>
     92e:	f6 01       	movw	r30, r12
     930:	ee 0f       	add	r30, r30
     932:	ff 1f       	adc	r31, r31
     934:	a1 e0       	ldi	r26, 0x01	; 1
     936:	b0 e0       	ldi	r27, 0x00	; 0
     938:	ac 0f       	add	r26, r28
     93a:	bd 1f       	adc	r27, r29
     93c:	ea 0f       	add	r30, r26
     93e:	fb 1f       	adc	r31, r27
     940:	a1 8a       	std	Z+17, r10	; 0x11
     942:	b2 8a       	std	Z+18, r11	; 0x12
     944:	bf ef       	ldi	r27, 0xFF	; 255
     946:	cb 1a       	sub	r12, r27
     948:	db 0a       	sbc	r13, r27
     94a:	0f 90       	pop	r0
     94c:	0f 90       	pop	r0
     94e:	0f 90       	pop	r0
     950:	0f 90       	pop	r0
     952:	0f 90       	pop	r0
     954:	0f 90       	pop	r0
     956:	02 c0       	rjmp	.+4      	; 0x95c <set_t+0xc4>
     958:	c1 2c       	mov	r12, r1
     95a:	d1 2c       	mov	r13, r1
     95c:	86 e0       	ldi	r24, 0x06	; 6
     95e:	c8 16       	cp	r12, r24
     960:	d1 04       	cpc	r13, r1
     962:	0c f4       	brge	.+2      	; 0x966 <set_t+0xce>
     964:	bf cf       	rjmp	.-130    	; 0x8e4 <set_t+0x4c>
     966:	2a 89       	ldd	r18, Y+18	; 0x12
     968:	3b 89       	ldd	r19, Y+19	; 0x13
     96a:	c9 01       	movw	r24, r18
     96c:	88 0f       	add	r24, r24
     96e:	99 1f       	adc	r25, r25
     970:	22 0f       	add	r18, r18
     972:	33 1f       	adc	r19, r19
     974:	22 0f       	add	r18, r18
     976:	33 1f       	adc	r19, r19
     978:	22 0f       	add	r18, r18
     97a:	33 1f       	adc	r19, r19
     97c:	28 0f       	add	r18, r24
     97e:	39 1f       	adc	r19, r25
     980:	8c 89       	ldd	r24, Y+20	; 0x14
     982:	9d 89       	ldd	r25, Y+21	; 0x15
     984:	82 0f       	add	r24, r18
     986:	93 1f       	adc	r25, r19
     988:	90 93 13 01 	sts	0x0113, r25	; 0x800113 <h+0x1>
     98c:	80 93 12 01 	sts	0x0112, r24	; 0x800112 <h>
     990:	2e 89       	ldd	r18, Y+22	; 0x16
     992:	3f 89       	ldd	r19, Y+23	; 0x17
     994:	b9 01       	movw	r22, r18
     996:	66 0f       	add	r22, r22
     998:	77 1f       	adc	r23, r23
     99a:	22 0f       	add	r18, r18
     99c:	33 1f       	adc	r19, r19
     99e:	22 0f       	add	r18, r18
     9a0:	33 1f       	adc	r19, r19
     9a2:	22 0f       	add	r18, r18
     9a4:	33 1f       	adc	r19, r19
     9a6:	26 0f       	add	r18, r22
     9a8:	37 1f       	adc	r19, r23
     9aa:	68 8d       	ldd	r22, Y+24	; 0x18
     9ac:	79 8d       	ldd	r23, Y+25	; 0x19
     9ae:	62 0f       	add	r22, r18
     9b0:	73 1f       	adc	r23, r19
     9b2:	70 93 0d 01 	sts	0x010D, r23	; 0x80010d <min+0x1>
     9b6:	60 93 0c 01 	sts	0x010C, r22	; 0x80010c <min>
     9ba:	2a 8d       	ldd	r18, Y+26	; 0x1a
     9bc:	3b 8d       	ldd	r19, Y+27	; 0x1b
     9be:	a9 01       	movw	r20, r18
     9c0:	44 0f       	add	r20, r20
     9c2:	55 1f       	adc	r21, r21
     9c4:	22 0f       	add	r18, r18
     9c6:	33 1f       	adc	r19, r19
     9c8:	22 0f       	add	r18, r18
     9ca:	33 1f       	adc	r19, r19
     9cc:	22 0f       	add	r18, r18
     9ce:	33 1f       	adc	r19, r19
     9d0:	24 0f       	add	r18, r20
     9d2:	35 1f       	adc	r19, r21
     9d4:	4c 8d       	ldd	r20, Y+28	; 0x1c
     9d6:	5d 8d       	ldd	r21, Y+29	; 0x1d
     9d8:	42 0f       	add	r20, r18
     9da:	53 1f       	adc	r21, r19
     9dc:	50 93 11 01 	sts	0x0111, r21	; 0x800111 <sec+0x1>
     9e0:	40 93 10 01 	sts	0x0110, r20	; 0x800110 <sec>
     9e4:	0e 94 14 01 	call	0x228	; 0x228 <is_valid_time>
     9e8:	89 2b       	or	r24, r25
     9ea:	89 f5       	brne	.+98     	; 0xa4e <set_t+0x1b6>
     9ec:	0e 94 68 00 	call	0xd0	; 0xd0 <lcd_clr>
     9f0:	62 ec       	ldi	r22, 0xC2	; 194
     9f2:	70 e0       	ldi	r23, 0x00	; 0
     9f4:	80 e0       	ldi	r24, 0x00	; 0
     9f6:	90 e0       	ldi	r25, 0x00	; 0
     9f8:	0e 94 8c 02 	call	0x518	; 0x518 <display>
     9fc:	8c ed       	ldi	r24, 0xDC	; 220
     9fe:	95 e0       	ldi	r25, 0x05	; 5
     a00:	0e 94 03 03 	call	0x606	; 0x606 <avr_wait>
     a04:	0e 94 68 00 	call	0xd0	; 0xd0 <lcd_clr>
     a08:	10 93 61 00 	sts	0x0061, r17	; 0x800061 <__DATA_REGION_ORIGIN__+0x1>
     a0c:	00 93 60 00 	sts	0x0060, r16	; 0x800060 <__DATA_REGION_ORIGIN__>
     a10:	10 92 07 01 	sts	0x0107, r1	; 0x800107 <civ+0x1>
     a14:	10 92 06 01 	sts	0x0106, r1	; 0x800106 <civ>
     a18:	10 92 05 01 	sts	0x0105, r1	; 0x800105 <am+0x1>
     a1c:	10 92 04 01 	sts	0x0104, r1	; 0x800104 <am>
     a20:	10 92 03 01 	sts	0x0103, r1	; 0x800103 <__data_end+0x1>
     a24:	10 92 02 01 	sts	0x0102, r1	; 0x800102 <__data_end>
     a28:	0e 94 4c 04 	call	0x898	; 0x898 <set_t>
     a2c:	40 91 10 01 	lds	r20, 0x0110	; 0x800110 <sec>
     a30:	50 91 11 01 	lds	r21, 0x0111	; 0x800111 <sec+0x1>
     a34:	60 91 0c 01 	lds	r22, 0x010C	; 0x80010c <min>
     a38:	70 91 0d 01 	lds	r23, 0x010D	; 0x80010d <min+0x1>
     a3c:	80 91 12 01 	lds	r24, 0x0112	; 0x800112 <h>
     a40:	90 91 13 01 	lds	r25, 0x0113	; 0x800113 <h+0x1>
     a44:	0e 94 14 01 	call	0x228	; 0x228 <is_valid_time>
     a48:	89 2b       	or	r24, r25
     a4a:	09 f4       	brne	.+2      	; 0xa4e <set_t+0x1b6>
     a4c:	85 cf       	rjmp	.-246    	; 0x958 <set_t+0xc0>
     a4e:	6d 96       	adiw	r28, 0x1d	; 29
     a50:	0f b6       	in	r0, 0x3f	; 63
     a52:	f8 94       	cli
     a54:	de bf       	out	0x3e, r29	; 62
     a56:	0f be       	out	0x3f, r0	; 63
     a58:	cd bf       	out	0x3d, r28	; 61
     a5a:	df 91       	pop	r29
     a5c:	cf 91       	pop	r28
     a5e:	1f 91       	pop	r17
     a60:	0f 91       	pop	r16
     a62:	ff 90       	pop	r15
     a64:	ef 90       	pop	r14
     a66:	df 90       	pop	r13
     a68:	cf 90       	pop	r12
     a6a:	bf 90       	pop	r11
     a6c:	af 90       	pop	r10
     a6e:	08 95       	ret

00000a70 <setup>:
     a70:	81 e0       	ldi	r24, 0x01	; 1
     a72:	90 e0       	ldi	r25, 0x00	; 0
     a74:	90 93 61 00 	sts	0x0061, r25	; 0x800061 <__DATA_REGION_ORIGIN__+0x1>
     a78:	80 93 60 00 	sts	0x0060, r24	; 0x800060 <__DATA_REGION_ORIGIN__>
     a7c:	10 92 07 01 	sts	0x0107, r1	; 0x800107 <civ+0x1>
     a80:	10 92 06 01 	sts	0x0106, r1	; 0x800106 <civ>
     a84:	0e 94 68 00 	call	0xd0	; 0xd0 <lcd_clr>
     a88:	84 ef       	ldi	r24, 0xF4	; 244
     a8a:	91 e0       	ldi	r25, 0x01	; 1
     a8c:	0e 94 03 03 	call	0x606	; 0x606 <avr_wait>
     a90:	0e 94 da 02 	call	0x5b4	; 0x5b4 <get_key>
     a94:	0e 94 68 00 	call	0xd0	; 0xd0 <lcd_clr>
     a98:	63 ed       	ldi	r22, 0xD3	; 211
     a9a:	70 e0       	ldi	r23, 0x00	; 0
     a9c:	80 e0       	ldi	r24, 0x00	; 0
     a9e:	90 e0       	ldi	r25, 0x00	; 0
     aa0:	0e 94 8c 02 	call	0x518	; 0x518 <display>
     aa4:	61 ee       	ldi	r22, 0xE1	; 225
     aa6:	70 e0       	ldi	r23, 0x00	; 0
     aa8:	81 e0       	ldi	r24, 0x01	; 1
     aaa:	90 e0       	ldi	r25, 0x00	; 0
     aac:	0e 94 8c 02 	call	0x518	; 0x518 <display>
     ab0:	84 ef       	ldi	r24, 0xF4	; 244
     ab2:	91 e0       	ldi	r25, 0x01	; 1
     ab4:	0e 94 03 03 	call	0x606	; 0x606 <avr_wait>
     ab8:	0e 94 da 02 	call	0x5b4	; 0x5b4 <get_key>
     abc:	88 30       	cpi	r24, 0x08	; 8
     abe:	91 05       	cpc	r25, r1
     ac0:	89 f4       	brne	.+34     	; 0xae4 <setup+0x74>
     ac2:	0e 94 68 00 	call	0xd0	; 0xd0 <lcd_clr>
     ac6:	0e 94 4c 04 	call	0x898	; 0x898 <set_t>
     aca:	0e 94 68 00 	call	0xd0	; 0xd0 <lcd_clr>
     ace:	6f ee       	ldi	r22, 0xEF	; 239
     ad0:	70 e0       	ldi	r23, 0x00	; 0
     ad2:	80 e0       	ldi	r24, 0x00	; 0
     ad4:	90 e0       	ldi	r25, 0x00	; 0
     ad6:	0e 94 8c 02 	call	0x518	; 0x518 <display>
     ada:	88 eb       	ldi	r24, 0xB8	; 184
     adc:	9b e0       	ldi	r25, 0x0B	; 11
     ade:	0e 94 03 03 	call	0x606	; 0x606 <avr_wait>
     ae2:	da cf       	rjmp	.-76     	; 0xa98 <setup+0x28>
     ae4:	8c 30       	cpi	r24, 0x0C	; 12
     ae6:	91 05       	cpc	r25, r1
     ae8:	89 f4       	brne	.+34     	; 0xb0c <setup+0x9c>
     aea:	0e 94 68 00 	call	0xd0	; 0xd0 <lcd_clr>
     aee:	0e 94 3d 03 	call	0x67a	; 0x67a <set_d>
     af2:	0e 94 68 00 	call	0xd0	; 0xd0 <lcd_clr>
     af6:	68 ef       	ldi	r22, 0xF8	; 248
     af8:	70 e0       	ldi	r23, 0x00	; 0
     afa:	80 e0       	ldi	r24, 0x00	; 0
     afc:	90 e0       	ldi	r25, 0x00	; 0
     afe:	0e 94 8c 02 	call	0x518	; 0x518 <display>
     b02:	88 eb       	ldi	r24, 0xB8	; 184
     b04:	9b e0       	ldi	r25, 0x0B	; 11
     b06:	0e 94 03 03 	call	0x606	; 0x606 <avr_wait>
     b0a:	c6 cf       	rjmp	.-116    	; 0xa98 <setup+0x28>
     b0c:	40 97       	sbiw	r24, 0x10	; 16
     b0e:	21 f6       	brne	.-120    	; 0xa98 <setup+0x28>
     b10:	0e 94 68 00 	call	0xd0	; 0xd0 <lcd_clr>
     b14:	08 95       	ret

00000b16 <main>:
}

int main(void)
{
	lcd_init();
     b16:	0e 94 15 03 	call	0x62a	; 0x62a <lcd_init>
	lcd_clr();
     b1a:	0e 94 68 00 	call	0xd0	; 0xd0 <lcd_clr>
	setup();
     b1e:	0e 94 38 05 	call	0xa70	; 0xa70 <setup>
	int k = get_key();
     b22:	0e 94 da 02 	call	0x5b4	; 0x5b4 <get_key>
	while (1)
	{
		avr_wait(800);
     b26:	80 e2       	ldi	r24, 0x20	; 32
     b28:	93 e0       	ldi	r25, 0x03	; 3
     b2a:	0e 94 03 03 	call	0x606	; 0x606 <avr_wait>
		time_counter();
     b2e:	0e 94 e5 01 	call	0x3ca	; 0x3ca <time_counter>
		display_time(0, mm, dd, yy);
     b32:	20 91 0e 01 	lds	r18, 0x010E	; 0x80010e <yy>
     b36:	30 91 0f 01 	lds	r19, 0x010F	; 0x80010f <yy+0x1>
     b3a:	40 91 0a 01 	lds	r20, 0x010A	; 0x80010a <dd>
     b3e:	50 91 0b 01 	lds	r21, 0x010B	; 0x80010b <dd+0x1>
     b42:	60 91 08 01 	lds	r22, 0x0108	; 0x800108 <mm>
     b46:	70 91 09 01 	lds	r23, 0x0109	; 0x800109 <mm+0x1>
     b4a:	80 e0       	ldi	r24, 0x00	; 0
     b4c:	90 e0       	ldi	r25, 0x00	; 0
     b4e:	0e 94 92 00 	call	0x124	; 0x124 <display_time>
		display_date(1, h, min, sec);
     b52:	20 91 10 01 	lds	r18, 0x0110	; 0x800110 <sec>
     b56:	30 91 11 01 	lds	r19, 0x0111	; 0x800111 <sec+0x1>
     b5a:	40 91 0c 01 	lds	r20, 0x010C	; 0x80010c <min>
     b5e:	50 91 0d 01 	lds	r21, 0x010D	; 0x80010d <min+0x1>
     b62:	60 91 12 01 	lds	r22, 0x0112	; 0x800112 <h>
     b66:	70 91 13 01 	lds	r23, 0x0113	; 0x800113 <h+0x1>
     b6a:	81 e0       	ldi	r24, 0x01	; 1
     b6c:	90 e0       	ldi	r25, 0x00	; 0
     b6e:	0e 94 d3 00 	call	0x1a6	; 0x1a6 <display_date>
		k = get_key();
     b72:	0e 94 da 02 	call	0x5b4	; 0x5b4 <get_key>
     b76:	ec 01       	movw	r28, r24
		avr_wait(10);
     b78:	8a e0       	ldi	r24, 0x0A	; 10
     b7a:	90 e0       	ldi	r25, 0x00	; 0
     b7c:	0e 94 03 03 	call	0x606	; 0x606 <avr_wait>
		if(k == 4)
     b80:	24 97       	sbiw	r28, 0x04	; 4
     b82:	89 f6       	brne	.-94     	; 0xb26 <main+0x10>
		{
			setup();
     b84:	0e 94 38 05 	call	0xa70	; 0xa70 <setup>
     b88:	ce cf       	rjmp	.-100    	; 0xb26 <main+0x10>

00000b8a <__divmodhi4>:
     b8a:	97 fb       	bst	r25, 7
     b8c:	07 2e       	mov	r0, r23
     b8e:	16 f4       	brtc	.+4      	; 0xb94 <__divmodhi4+0xa>
     b90:	00 94       	com	r0
     b92:	07 d0       	rcall	.+14     	; 0xba2 <__divmodhi4_neg1>
     b94:	77 fd       	sbrc	r23, 7
     b96:	09 d0       	rcall	.+18     	; 0xbaa <__divmodhi4_neg2>
     b98:	0e 94 d9 05 	call	0xbb2	; 0xbb2 <__udivmodhi4>
     b9c:	07 fc       	sbrc	r0, 7
     b9e:	05 d0       	rcall	.+10     	; 0xbaa <__divmodhi4_neg2>
     ba0:	3e f4       	brtc	.+14     	; 0xbb0 <__divmodhi4_exit>

00000ba2 <__divmodhi4_neg1>:
     ba2:	90 95       	com	r25
     ba4:	81 95       	neg	r24
     ba6:	9f 4f       	sbci	r25, 0xFF	; 255
     ba8:	08 95       	ret

00000baa <__divmodhi4_neg2>:
     baa:	70 95       	com	r23
     bac:	61 95       	neg	r22
     bae:	7f 4f       	sbci	r23, 0xFF	; 255

00000bb0 <__divmodhi4_exit>:
     bb0:	08 95       	ret

00000bb2 <__udivmodhi4>:
     bb2:	aa 1b       	sub	r26, r26
     bb4:	bb 1b       	sub	r27, r27
     bb6:	51 e1       	ldi	r21, 0x11	; 17
     bb8:	07 c0       	rjmp	.+14     	; 0xbc8 <__udivmodhi4_ep>

00000bba <__udivmodhi4_loop>:
     bba:	aa 1f       	adc	r26, r26
     bbc:	bb 1f       	adc	r27, r27
     bbe:	a6 17       	cp	r26, r22
     bc0:	b7 07       	cpc	r27, r23
     bc2:	10 f0       	brcs	.+4      	; 0xbc8 <__udivmodhi4_ep>
     bc4:	a6 1b       	sub	r26, r22
     bc6:	b7 0b       	sbc	r27, r23

00000bc8 <__udivmodhi4_ep>:
     bc8:	88 1f       	adc	r24, r24
     bca:	99 1f       	adc	r25, r25
     bcc:	5a 95       	dec	r21
     bce:	a9 f7       	brne	.-22     	; 0xbba <__udivmodhi4_loop>
     bd0:	80 95       	com	r24
     bd2:	90 95       	com	r25
     bd4:	bc 01       	movw	r22, r24
     bd6:	cd 01       	movw	r24, r26
     bd8:	08 95       	ret

00000bda <strcpy>:
     bda:	fb 01       	movw	r30, r22
     bdc:	dc 01       	movw	r26, r24
     bde:	01 90       	ld	r0, Z+
     be0:	0d 92       	st	X+, r0
     be2:	00 20       	and	r0, r0
     be4:	e1 f7       	brne	.-8      	; 0xbde <strcpy+0x4>
     be6:	08 95       	ret

00000be8 <sprintf>:
     be8:	ae e0       	ldi	r26, 0x0E	; 14
     bea:	b0 e0       	ldi	r27, 0x00	; 0
     bec:	ea ef       	ldi	r30, 0xFA	; 250
     bee:	f5 e0       	ldi	r31, 0x05	; 5
     bf0:	0c 94 b5 08 	jmp	0x116a	; 0x116a <__prologue_saves__+0x1c>
     bf4:	0d 89       	ldd	r16, Y+21	; 0x15
     bf6:	1e 89       	ldd	r17, Y+22	; 0x16
     bf8:	86 e0       	ldi	r24, 0x06	; 6
     bfa:	8c 83       	std	Y+4, r24	; 0x04
     bfc:	1a 83       	std	Y+2, r17	; 0x02
     bfe:	09 83       	std	Y+1, r16	; 0x01
     c00:	8f ef       	ldi	r24, 0xFF	; 255
     c02:	9f e7       	ldi	r25, 0x7F	; 127
     c04:	9e 83       	std	Y+6, r25	; 0x06
     c06:	8d 83       	std	Y+5, r24	; 0x05
     c08:	ae 01       	movw	r20, r28
     c0a:	47 5e       	subi	r20, 0xE7	; 231
     c0c:	5f 4f       	sbci	r21, 0xFF	; 255
     c0e:	6f 89       	ldd	r22, Y+23	; 0x17
     c10:	78 8d       	ldd	r23, Y+24	; 0x18
     c12:	ce 01       	movw	r24, r28
     c14:	01 96       	adiw	r24, 0x01	; 1
     c16:	0e 94 16 06 	call	0xc2c	; 0xc2c <vfprintf>
     c1a:	ef 81       	ldd	r30, Y+7	; 0x07
     c1c:	f8 85       	ldd	r31, Y+8	; 0x08
     c1e:	e0 0f       	add	r30, r16
     c20:	f1 1f       	adc	r31, r17
     c22:	10 82       	st	Z, r1
     c24:	2e 96       	adiw	r28, 0x0e	; 14
     c26:	e4 e0       	ldi	r30, 0x04	; 4
     c28:	0c 94 d1 08 	jmp	0x11a2	; 0x11a2 <__epilogue_restores__+0x1c>

00000c2c <vfprintf>:
     c2c:	ab e0       	ldi	r26, 0x0B	; 11
     c2e:	b0 e0       	ldi	r27, 0x00	; 0
     c30:	ec e1       	ldi	r30, 0x1C	; 28
     c32:	f6 e0       	ldi	r31, 0x06	; 6
     c34:	0c 94 a7 08 	jmp	0x114e	; 0x114e <__prologue_saves__>
     c38:	6c 01       	movw	r12, r24
     c3a:	7b 01       	movw	r14, r22
     c3c:	8a 01       	movw	r16, r20
     c3e:	fc 01       	movw	r30, r24
     c40:	17 82       	std	Z+7, r1	; 0x07
     c42:	16 82       	std	Z+6, r1	; 0x06
     c44:	83 81       	ldd	r24, Z+3	; 0x03
     c46:	81 ff       	sbrs	r24, 1
     c48:	cc c1       	rjmp	.+920    	; 0xfe2 <vfprintf+0x3b6>
     c4a:	ce 01       	movw	r24, r28
     c4c:	01 96       	adiw	r24, 0x01	; 1
     c4e:	3c 01       	movw	r6, r24
     c50:	f6 01       	movw	r30, r12
     c52:	93 81       	ldd	r25, Z+3	; 0x03
     c54:	f7 01       	movw	r30, r14
     c56:	93 fd       	sbrc	r25, 3
     c58:	85 91       	lpm	r24, Z+
     c5a:	93 ff       	sbrs	r25, 3
     c5c:	81 91       	ld	r24, Z+
     c5e:	7f 01       	movw	r14, r30
     c60:	88 23       	and	r24, r24
     c62:	09 f4       	brne	.+2      	; 0xc66 <vfprintf+0x3a>
     c64:	ba c1       	rjmp	.+884    	; 0xfda <vfprintf+0x3ae>
     c66:	85 32       	cpi	r24, 0x25	; 37
     c68:	39 f4       	brne	.+14     	; 0xc78 <vfprintf+0x4c>
     c6a:	93 fd       	sbrc	r25, 3
     c6c:	85 91       	lpm	r24, Z+
     c6e:	93 ff       	sbrs	r25, 3
     c70:	81 91       	ld	r24, Z+
     c72:	7f 01       	movw	r14, r30
     c74:	85 32       	cpi	r24, 0x25	; 37
     c76:	29 f4       	brne	.+10     	; 0xc82 <vfprintf+0x56>
     c78:	b6 01       	movw	r22, r12
     c7a:	90 e0       	ldi	r25, 0x00	; 0
     c7c:	0e 94 0d 08 	call	0x101a	; 0x101a <fputc>
     c80:	e7 cf       	rjmp	.-50     	; 0xc50 <vfprintf+0x24>
     c82:	91 2c       	mov	r9, r1
     c84:	21 2c       	mov	r2, r1
     c86:	31 2c       	mov	r3, r1
     c88:	ff e1       	ldi	r31, 0x1F	; 31
     c8a:	f3 15       	cp	r31, r3
     c8c:	d8 f0       	brcs	.+54     	; 0xcc4 <vfprintf+0x98>
     c8e:	8b 32       	cpi	r24, 0x2B	; 43
     c90:	79 f0       	breq	.+30     	; 0xcb0 <vfprintf+0x84>
     c92:	38 f4       	brcc	.+14     	; 0xca2 <vfprintf+0x76>
     c94:	80 32       	cpi	r24, 0x20	; 32
     c96:	79 f0       	breq	.+30     	; 0xcb6 <vfprintf+0x8a>
     c98:	83 32       	cpi	r24, 0x23	; 35
     c9a:	a1 f4       	brne	.+40     	; 0xcc4 <vfprintf+0x98>
     c9c:	23 2d       	mov	r18, r3
     c9e:	20 61       	ori	r18, 0x10	; 16
     ca0:	1d c0       	rjmp	.+58     	; 0xcdc <vfprintf+0xb0>
     ca2:	8d 32       	cpi	r24, 0x2D	; 45
     ca4:	61 f0       	breq	.+24     	; 0xcbe <vfprintf+0x92>
     ca6:	80 33       	cpi	r24, 0x30	; 48
     ca8:	69 f4       	brne	.+26     	; 0xcc4 <vfprintf+0x98>
     caa:	23 2d       	mov	r18, r3
     cac:	21 60       	ori	r18, 0x01	; 1
     cae:	16 c0       	rjmp	.+44     	; 0xcdc <vfprintf+0xb0>
     cb0:	83 2d       	mov	r24, r3
     cb2:	82 60       	ori	r24, 0x02	; 2
     cb4:	38 2e       	mov	r3, r24
     cb6:	e3 2d       	mov	r30, r3
     cb8:	e4 60       	ori	r30, 0x04	; 4
     cba:	3e 2e       	mov	r3, r30
     cbc:	2a c0       	rjmp	.+84     	; 0xd12 <vfprintf+0xe6>
     cbe:	f3 2d       	mov	r31, r3
     cc0:	f8 60       	ori	r31, 0x08	; 8
     cc2:	1d c0       	rjmp	.+58     	; 0xcfe <vfprintf+0xd2>
     cc4:	37 fc       	sbrc	r3, 7
     cc6:	2d c0       	rjmp	.+90     	; 0xd22 <vfprintf+0xf6>
     cc8:	20 ed       	ldi	r18, 0xD0	; 208
     cca:	28 0f       	add	r18, r24
     ccc:	2a 30       	cpi	r18, 0x0A	; 10
     cce:	40 f0       	brcs	.+16     	; 0xce0 <vfprintf+0xb4>
     cd0:	8e 32       	cpi	r24, 0x2E	; 46
     cd2:	b9 f4       	brne	.+46     	; 0xd02 <vfprintf+0xd6>
     cd4:	36 fc       	sbrc	r3, 6
     cd6:	81 c1       	rjmp	.+770    	; 0xfda <vfprintf+0x3ae>
     cd8:	23 2d       	mov	r18, r3
     cda:	20 64       	ori	r18, 0x40	; 64
     cdc:	32 2e       	mov	r3, r18
     cde:	19 c0       	rjmp	.+50     	; 0xd12 <vfprintf+0xe6>
     ce0:	36 fe       	sbrs	r3, 6
     ce2:	06 c0       	rjmp	.+12     	; 0xcf0 <vfprintf+0xc4>
     ce4:	8a e0       	ldi	r24, 0x0A	; 10
     ce6:	98 9e       	mul	r9, r24
     ce8:	20 0d       	add	r18, r0
     cea:	11 24       	eor	r1, r1
     cec:	92 2e       	mov	r9, r18
     cee:	11 c0       	rjmp	.+34     	; 0xd12 <vfprintf+0xe6>
     cf0:	ea e0       	ldi	r30, 0x0A	; 10
     cf2:	2e 9e       	mul	r2, r30
     cf4:	20 0d       	add	r18, r0
     cf6:	11 24       	eor	r1, r1
     cf8:	22 2e       	mov	r2, r18
     cfa:	f3 2d       	mov	r31, r3
     cfc:	f0 62       	ori	r31, 0x20	; 32
     cfe:	3f 2e       	mov	r3, r31
     d00:	08 c0       	rjmp	.+16     	; 0xd12 <vfprintf+0xe6>
     d02:	8c 36       	cpi	r24, 0x6C	; 108
     d04:	21 f4       	brne	.+8      	; 0xd0e <vfprintf+0xe2>
     d06:	83 2d       	mov	r24, r3
     d08:	80 68       	ori	r24, 0x80	; 128
     d0a:	38 2e       	mov	r3, r24
     d0c:	02 c0       	rjmp	.+4      	; 0xd12 <vfprintf+0xe6>
     d0e:	88 36       	cpi	r24, 0x68	; 104
     d10:	41 f4       	brne	.+16     	; 0xd22 <vfprintf+0xf6>
     d12:	f7 01       	movw	r30, r14
     d14:	93 fd       	sbrc	r25, 3
     d16:	85 91       	lpm	r24, Z+
     d18:	93 ff       	sbrs	r25, 3
     d1a:	81 91       	ld	r24, Z+
     d1c:	7f 01       	movw	r14, r30
     d1e:	81 11       	cpse	r24, r1
     d20:	b3 cf       	rjmp	.-154    	; 0xc88 <vfprintf+0x5c>
     d22:	98 2f       	mov	r25, r24
     d24:	9f 7d       	andi	r25, 0xDF	; 223
     d26:	95 54       	subi	r25, 0x45	; 69
     d28:	93 30       	cpi	r25, 0x03	; 3
     d2a:	28 f4       	brcc	.+10     	; 0xd36 <vfprintf+0x10a>
     d2c:	0c 5f       	subi	r16, 0xFC	; 252
     d2e:	1f 4f       	sbci	r17, 0xFF	; 255
     d30:	9f e3       	ldi	r25, 0x3F	; 63
     d32:	99 83       	std	Y+1, r25	; 0x01
     d34:	0d c0       	rjmp	.+26     	; 0xd50 <vfprintf+0x124>
     d36:	83 36       	cpi	r24, 0x63	; 99
     d38:	31 f0       	breq	.+12     	; 0xd46 <vfprintf+0x11a>
     d3a:	83 37       	cpi	r24, 0x73	; 115
     d3c:	71 f0       	breq	.+28     	; 0xd5a <vfprintf+0x12e>
     d3e:	83 35       	cpi	r24, 0x53	; 83
     d40:	09 f0       	breq	.+2      	; 0xd44 <vfprintf+0x118>
     d42:	59 c0       	rjmp	.+178    	; 0xdf6 <vfprintf+0x1ca>
     d44:	21 c0       	rjmp	.+66     	; 0xd88 <vfprintf+0x15c>
     d46:	f8 01       	movw	r30, r16
     d48:	80 81       	ld	r24, Z
     d4a:	89 83       	std	Y+1, r24	; 0x01
     d4c:	0e 5f       	subi	r16, 0xFE	; 254
     d4e:	1f 4f       	sbci	r17, 0xFF	; 255
     d50:	88 24       	eor	r8, r8
     d52:	83 94       	inc	r8
     d54:	91 2c       	mov	r9, r1
     d56:	53 01       	movw	r10, r6
     d58:	13 c0       	rjmp	.+38     	; 0xd80 <vfprintf+0x154>
     d5a:	28 01       	movw	r4, r16
     d5c:	f2 e0       	ldi	r31, 0x02	; 2
     d5e:	4f 0e       	add	r4, r31
     d60:	51 1c       	adc	r5, r1
     d62:	f8 01       	movw	r30, r16
     d64:	a0 80       	ld	r10, Z
     d66:	b1 80       	ldd	r11, Z+1	; 0x01
     d68:	36 fe       	sbrs	r3, 6
     d6a:	03 c0       	rjmp	.+6      	; 0xd72 <vfprintf+0x146>
     d6c:	69 2d       	mov	r22, r9
     d6e:	70 e0       	ldi	r23, 0x00	; 0
     d70:	02 c0       	rjmp	.+4      	; 0xd76 <vfprintf+0x14a>
     d72:	6f ef       	ldi	r22, 0xFF	; 255
     d74:	7f ef       	ldi	r23, 0xFF	; 255
     d76:	c5 01       	movw	r24, r10
     d78:	0e 94 02 08 	call	0x1004	; 0x1004 <strnlen>
     d7c:	4c 01       	movw	r8, r24
     d7e:	82 01       	movw	r16, r4
     d80:	f3 2d       	mov	r31, r3
     d82:	ff 77       	andi	r31, 0x7F	; 127
     d84:	3f 2e       	mov	r3, r31
     d86:	16 c0       	rjmp	.+44     	; 0xdb4 <vfprintf+0x188>
     d88:	28 01       	movw	r4, r16
     d8a:	22 e0       	ldi	r18, 0x02	; 2
     d8c:	42 0e       	add	r4, r18
     d8e:	51 1c       	adc	r5, r1
     d90:	f8 01       	movw	r30, r16
     d92:	a0 80       	ld	r10, Z
     d94:	b1 80       	ldd	r11, Z+1	; 0x01
     d96:	36 fe       	sbrs	r3, 6
     d98:	03 c0       	rjmp	.+6      	; 0xda0 <vfprintf+0x174>
     d9a:	69 2d       	mov	r22, r9
     d9c:	70 e0       	ldi	r23, 0x00	; 0
     d9e:	02 c0       	rjmp	.+4      	; 0xda4 <vfprintf+0x178>
     da0:	6f ef       	ldi	r22, 0xFF	; 255
     da2:	7f ef       	ldi	r23, 0xFF	; 255
     da4:	c5 01       	movw	r24, r10
     da6:	0e 94 f7 07 	call	0xfee	; 0xfee <strnlen_P>
     daa:	4c 01       	movw	r8, r24
     dac:	f3 2d       	mov	r31, r3
     dae:	f0 68       	ori	r31, 0x80	; 128
     db0:	3f 2e       	mov	r3, r31
     db2:	82 01       	movw	r16, r4
     db4:	33 fc       	sbrc	r3, 3
     db6:	1b c0       	rjmp	.+54     	; 0xdee <vfprintf+0x1c2>
     db8:	82 2d       	mov	r24, r2
     dba:	90 e0       	ldi	r25, 0x00	; 0
     dbc:	88 16       	cp	r8, r24
     dbe:	99 06       	cpc	r9, r25
     dc0:	b0 f4       	brcc	.+44     	; 0xdee <vfprintf+0x1c2>
     dc2:	b6 01       	movw	r22, r12
     dc4:	80 e2       	ldi	r24, 0x20	; 32
     dc6:	90 e0       	ldi	r25, 0x00	; 0
     dc8:	0e 94 0d 08 	call	0x101a	; 0x101a <fputc>
     dcc:	2a 94       	dec	r2
     dce:	f4 cf       	rjmp	.-24     	; 0xdb8 <vfprintf+0x18c>
     dd0:	f5 01       	movw	r30, r10
     dd2:	37 fc       	sbrc	r3, 7
     dd4:	85 91       	lpm	r24, Z+
     dd6:	37 fe       	sbrs	r3, 7
     dd8:	81 91       	ld	r24, Z+
     dda:	5f 01       	movw	r10, r30
     ddc:	b6 01       	movw	r22, r12
     dde:	90 e0       	ldi	r25, 0x00	; 0
     de0:	0e 94 0d 08 	call	0x101a	; 0x101a <fputc>
     de4:	21 10       	cpse	r2, r1
     de6:	2a 94       	dec	r2
     de8:	21 e0       	ldi	r18, 0x01	; 1
     dea:	82 1a       	sub	r8, r18
     dec:	91 08       	sbc	r9, r1
     dee:	81 14       	cp	r8, r1
     df0:	91 04       	cpc	r9, r1
     df2:	71 f7       	brne	.-36     	; 0xdd0 <vfprintf+0x1a4>
     df4:	e8 c0       	rjmp	.+464    	; 0xfc6 <vfprintf+0x39a>
     df6:	84 36       	cpi	r24, 0x64	; 100
     df8:	11 f0       	breq	.+4      	; 0xdfe <vfprintf+0x1d2>
     dfa:	89 36       	cpi	r24, 0x69	; 105
     dfc:	41 f5       	brne	.+80     	; 0xe4e <vfprintf+0x222>
     dfe:	f8 01       	movw	r30, r16
     e00:	37 fe       	sbrs	r3, 7
     e02:	07 c0       	rjmp	.+14     	; 0xe12 <vfprintf+0x1e6>
     e04:	60 81       	ld	r22, Z
     e06:	71 81       	ldd	r23, Z+1	; 0x01
     e08:	82 81       	ldd	r24, Z+2	; 0x02
     e0a:	93 81       	ldd	r25, Z+3	; 0x03
     e0c:	0c 5f       	subi	r16, 0xFC	; 252
     e0e:	1f 4f       	sbci	r17, 0xFF	; 255
     e10:	08 c0       	rjmp	.+16     	; 0xe22 <vfprintf+0x1f6>
     e12:	60 81       	ld	r22, Z
     e14:	71 81       	ldd	r23, Z+1	; 0x01
     e16:	07 2e       	mov	r0, r23
     e18:	00 0c       	add	r0, r0
     e1a:	88 0b       	sbc	r24, r24
     e1c:	99 0b       	sbc	r25, r25
     e1e:	0e 5f       	subi	r16, 0xFE	; 254
     e20:	1f 4f       	sbci	r17, 0xFF	; 255
     e22:	f3 2d       	mov	r31, r3
     e24:	ff 76       	andi	r31, 0x6F	; 111
     e26:	3f 2e       	mov	r3, r31
     e28:	97 ff       	sbrs	r25, 7
     e2a:	09 c0       	rjmp	.+18     	; 0xe3e <vfprintf+0x212>
     e2c:	90 95       	com	r25
     e2e:	80 95       	com	r24
     e30:	70 95       	com	r23
     e32:	61 95       	neg	r22
     e34:	7f 4f       	sbci	r23, 0xFF	; 255
     e36:	8f 4f       	sbci	r24, 0xFF	; 255
     e38:	9f 4f       	sbci	r25, 0xFF	; 255
     e3a:	f0 68       	ori	r31, 0x80	; 128
     e3c:	3f 2e       	mov	r3, r31
     e3e:	2a e0       	ldi	r18, 0x0A	; 10
     e40:	30 e0       	ldi	r19, 0x00	; 0
     e42:	a3 01       	movw	r20, r6
     e44:	0e 94 49 08 	call	0x1092	; 0x1092 <__ultoa_invert>
     e48:	88 2e       	mov	r8, r24
     e4a:	86 18       	sub	r8, r6
     e4c:	45 c0       	rjmp	.+138    	; 0xed8 <vfprintf+0x2ac>
     e4e:	85 37       	cpi	r24, 0x75	; 117
     e50:	31 f4       	brne	.+12     	; 0xe5e <vfprintf+0x232>
     e52:	23 2d       	mov	r18, r3
     e54:	2f 7e       	andi	r18, 0xEF	; 239
     e56:	b2 2e       	mov	r11, r18
     e58:	2a e0       	ldi	r18, 0x0A	; 10
     e5a:	30 e0       	ldi	r19, 0x00	; 0
     e5c:	25 c0       	rjmp	.+74     	; 0xea8 <vfprintf+0x27c>
     e5e:	93 2d       	mov	r25, r3
     e60:	99 7f       	andi	r25, 0xF9	; 249
     e62:	b9 2e       	mov	r11, r25
     e64:	8f 36       	cpi	r24, 0x6F	; 111
     e66:	c1 f0       	breq	.+48     	; 0xe98 <vfprintf+0x26c>
     e68:	18 f4       	brcc	.+6      	; 0xe70 <vfprintf+0x244>
     e6a:	88 35       	cpi	r24, 0x58	; 88
     e6c:	79 f0       	breq	.+30     	; 0xe8c <vfprintf+0x260>
     e6e:	b5 c0       	rjmp	.+362    	; 0xfda <vfprintf+0x3ae>
     e70:	80 37       	cpi	r24, 0x70	; 112
     e72:	19 f0       	breq	.+6      	; 0xe7a <vfprintf+0x24e>
     e74:	88 37       	cpi	r24, 0x78	; 120
     e76:	21 f0       	breq	.+8      	; 0xe80 <vfprintf+0x254>
     e78:	b0 c0       	rjmp	.+352    	; 0xfda <vfprintf+0x3ae>
     e7a:	e9 2f       	mov	r30, r25
     e7c:	e0 61       	ori	r30, 0x10	; 16
     e7e:	be 2e       	mov	r11, r30
     e80:	b4 fe       	sbrs	r11, 4
     e82:	0d c0       	rjmp	.+26     	; 0xe9e <vfprintf+0x272>
     e84:	fb 2d       	mov	r31, r11
     e86:	f4 60       	ori	r31, 0x04	; 4
     e88:	bf 2e       	mov	r11, r31
     e8a:	09 c0       	rjmp	.+18     	; 0xe9e <vfprintf+0x272>
     e8c:	34 fe       	sbrs	r3, 4
     e8e:	0a c0       	rjmp	.+20     	; 0xea4 <vfprintf+0x278>
     e90:	29 2f       	mov	r18, r25
     e92:	26 60       	ori	r18, 0x06	; 6
     e94:	b2 2e       	mov	r11, r18
     e96:	06 c0       	rjmp	.+12     	; 0xea4 <vfprintf+0x278>
     e98:	28 e0       	ldi	r18, 0x08	; 8
     e9a:	30 e0       	ldi	r19, 0x00	; 0
     e9c:	05 c0       	rjmp	.+10     	; 0xea8 <vfprintf+0x27c>
     e9e:	20 e1       	ldi	r18, 0x10	; 16
     ea0:	30 e0       	ldi	r19, 0x00	; 0
     ea2:	02 c0       	rjmp	.+4      	; 0xea8 <vfprintf+0x27c>
     ea4:	20 e1       	ldi	r18, 0x10	; 16
     ea6:	32 e0       	ldi	r19, 0x02	; 2
     ea8:	f8 01       	movw	r30, r16
     eaa:	b7 fe       	sbrs	r11, 7
     eac:	07 c0       	rjmp	.+14     	; 0xebc <vfprintf+0x290>
     eae:	60 81       	ld	r22, Z
     eb0:	71 81       	ldd	r23, Z+1	; 0x01
     eb2:	82 81       	ldd	r24, Z+2	; 0x02
     eb4:	93 81       	ldd	r25, Z+3	; 0x03
     eb6:	0c 5f       	subi	r16, 0xFC	; 252
     eb8:	1f 4f       	sbci	r17, 0xFF	; 255
     eba:	06 c0       	rjmp	.+12     	; 0xec8 <vfprintf+0x29c>
     ebc:	60 81       	ld	r22, Z
     ebe:	71 81       	ldd	r23, Z+1	; 0x01
     ec0:	80 e0       	ldi	r24, 0x00	; 0
     ec2:	90 e0       	ldi	r25, 0x00	; 0
     ec4:	0e 5f       	subi	r16, 0xFE	; 254
     ec6:	1f 4f       	sbci	r17, 0xFF	; 255
     ec8:	a3 01       	movw	r20, r6
     eca:	0e 94 49 08 	call	0x1092	; 0x1092 <__ultoa_invert>
     ece:	88 2e       	mov	r8, r24
     ed0:	86 18       	sub	r8, r6
     ed2:	fb 2d       	mov	r31, r11
     ed4:	ff 77       	andi	r31, 0x7F	; 127
     ed6:	3f 2e       	mov	r3, r31
     ed8:	36 fe       	sbrs	r3, 6
     eda:	0d c0       	rjmp	.+26     	; 0xef6 <vfprintf+0x2ca>
     edc:	23 2d       	mov	r18, r3
     ede:	2e 7f       	andi	r18, 0xFE	; 254
     ee0:	a2 2e       	mov	r10, r18
     ee2:	89 14       	cp	r8, r9
     ee4:	58 f4       	brcc	.+22     	; 0xefc <vfprintf+0x2d0>
     ee6:	34 fe       	sbrs	r3, 4
     ee8:	0b c0       	rjmp	.+22     	; 0xf00 <vfprintf+0x2d4>
     eea:	32 fc       	sbrc	r3, 2
     eec:	09 c0       	rjmp	.+18     	; 0xf00 <vfprintf+0x2d4>
     eee:	83 2d       	mov	r24, r3
     ef0:	8e 7e       	andi	r24, 0xEE	; 238
     ef2:	a8 2e       	mov	r10, r24
     ef4:	05 c0       	rjmp	.+10     	; 0xf00 <vfprintf+0x2d4>
     ef6:	b8 2c       	mov	r11, r8
     ef8:	a3 2c       	mov	r10, r3
     efa:	03 c0       	rjmp	.+6      	; 0xf02 <vfprintf+0x2d6>
     efc:	b8 2c       	mov	r11, r8
     efe:	01 c0       	rjmp	.+2      	; 0xf02 <vfprintf+0x2d6>
     f00:	b9 2c       	mov	r11, r9
     f02:	a4 fe       	sbrs	r10, 4
     f04:	0f c0       	rjmp	.+30     	; 0xf24 <vfprintf+0x2f8>
     f06:	fe 01       	movw	r30, r28
     f08:	e8 0d       	add	r30, r8
     f0a:	f1 1d       	adc	r31, r1
     f0c:	80 81       	ld	r24, Z
     f0e:	80 33       	cpi	r24, 0x30	; 48
     f10:	21 f4       	brne	.+8      	; 0xf1a <vfprintf+0x2ee>
     f12:	9a 2d       	mov	r25, r10
     f14:	99 7e       	andi	r25, 0xE9	; 233
     f16:	a9 2e       	mov	r10, r25
     f18:	09 c0       	rjmp	.+18     	; 0xf2c <vfprintf+0x300>
     f1a:	a2 fe       	sbrs	r10, 2
     f1c:	06 c0       	rjmp	.+12     	; 0xf2a <vfprintf+0x2fe>
     f1e:	b3 94       	inc	r11
     f20:	b3 94       	inc	r11
     f22:	04 c0       	rjmp	.+8      	; 0xf2c <vfprintf+0x300>
     f24:	8a 2d       	mov	r24, r10
     f26:	86 78       	andi	r24, 0x86	; 134
     f28:	09 f0       	breq	.+2      	; 0xf2c <vfprintf+0x300>
     f2a:	b3 94       	inc	r11
     f2c:	a3 fc       	sbrc	r10, 3
     f2e:	11 c0       	rjmp	.+34     	; 0xf52 <vfprintf+0x326>
     f30:	a0 fe       	sbrs	r10, 0
     f32:	06 c0       	rjmp	.+12     	; 0xf40 <vfprintf+0x314>
     f34:	b2 14       	cp	r11, r2
     f36:	88 f4       	brcc	.+34     	; 0xf5a <vfprintf+0x32e>
     f38:	28 0c       	add	r2, r8
     f3a:	92 2c       	mov	r9, r2
     f3c:	9b 18       	sub	r9, r11
     f3e:	0e c0       	rjmp	.+28     	; 0xf5c <vfprintf+0x330>
     f40:	b2 14       	cp	r11, r2
     f42:	60 f4       	brcc	.+24     	; 0xf5c <vfprintf+0x330>
     f44:	b6 01       	movw	r22, r12
     f46:	80 e2       	ldi	r24, 0x20	; 32
     f48:	90 e0       	ldi	r25, 0x00	; 0
     f4a:	0e 94 0d 08 	call	0x101a	; 0x101a <fputc>
     f4e:	b3 94       	inc	r11
     f50:	f7 cf       	rjmp	.-18     	; 0xf40 <vfprintf+0x314>
     f52:	b2 14       	cp	r11, r2
     f54:	18 f4       	brcc	.+6      	; 0xf5c <vfprintf+0x330>
     f56:	2b 18       	sub	r2, r11
     f58:	02 c0       	rjmp	.+4      	; 0xf5e <vfprintf+0x332>
     f5a:	98 2c       	mov	r9, r8
     f5c:	21 2c       	mov	r2, r1
     f5e:	a4 fe       	sbrs	r10, 4
     f60:	10 c0       	rjmp	.+32     	; 0xf82 <vfprintf+0x356>
     f62:	b6 01       	movw	r22, r12
     f64:	80 e3       	ldi	r24, 0x30	; 48
     f66:	90 e0       	ldi	r25, 0x00	; 0
     f68:	0e 94 0d 08 	call	0x101a	; 0x101a <fputc>
     f6c:	a2 fe       	sbrs	r10, 2
     f6e:	17 c0       	rjmp	.+46     	; 0xf9e <vfprintf+0x372>
     f70:	a1 fc       	sbrc	r10, 1
     f72:	03 c0       	rjmp	.+6      	; 0xf7a <vfprintf+0x34e>
     f74:	88 e7       	ldi	r24, 0x78	; 120
     f76:	90 e0       	ldi	r25, 0x00	; 0
     f78:	02 c0       	rjmp	.+4      	; 0xf7e <vfprintf+0x352>
     f7a:	88 e5       	ldi	r24, 0x58	; 88
     f7c:	90 e0       	ldi	r25, 0x00	; 0
     f7e:	b6 01       	movw	r22, r12
     f80:	0c c0       	rjmp	.+24     	; 0xf9a <vfprintf+0x36e>
     f82:	8a 2d       	mov	r24, r10
     f84:	86 78       	andi	r24, 0x86	; 134
     f86:	59 f0       	breq	.+22     	; 0xf9e <vfprintf+0x372>
     f88:	a1 fe       	sbrs	r10, 1
     f8a:	02 c0       	rjmp	.+4      	; 0xf90 <vfprintf+0x364>
     f8c:	8b e2       	ldi	r24, 0x2B	; 43
     f8e:	01 c0       	rjmp	.+2      	; 0xf92 <vfprintf+0x366>
     f90:	80 e2       	ldi	r24, 0x20	; 32
     f92:	a7 fc       	sbrc	r10, 7
     f94:	8d e2       	ldi	r24, 0x2D	; 45
     f96:	b6 01       	movw	r22, r12
     f98:	90 e0       	ldi	r25, 0x00	; 0
     f9a:	0e 94 0d 08 	call	0x101a	; 0x101a <fputc>
     f9e:	89 14       	cp	r8, r9
     fa0:	38 f4       	brcc	.+14     	; 0xfb0 <vfprintf+0x384>
     fa2:	b6 01       	movw	r22, r12
     fa4:	80 e3       	ldi	r24, 0x30	; 48
     fa6:	90 e0       	ldi	r25, 0x00	; 0
     fa8:	0e 94 0d 08 	call	0x101a	; 0x101a <fputc>
     fac:	9a 94       	dec	r9
     fae:	f7 cf       	rjmp	.-18     	; 0xf9e <vfprintf+0x372>
     fb0:	8a 94       	dec	r8
     fb2:	f3 01       	movw	r30, r6
     fb4:	e8 0d       	add	r30, r8
     fb6:	f1 1d       	adc	r31, r1
     fb8:	80 81       	ld	r24, Z
     fba:	b6 01       	movw	r22, r12
     fbc:	90 e0       	ldi	r25, 0x00	; 0
     fbe:	0e 94 0d 08 	call	0x101a	; 0x101a <fputc>
     fc2:	81 10       	cpse	r8, r1
     fc4:	f5 cf       	rjmp	.-22     	; 0xfb0 <vfprintf+0x384>
     fc6:	22 20       	and	r2, r2
     fc8:	09 f4       	brne	.+2      	; 0xfcc <vfprintf+0x3a0>
     fca:	42 ce       	rjmp	.-892    	; 0xc50 <vfprintf+0x24>
     fcc:	b6 01       	movw	r22, r12
     fce:	80 e2       	ldi	r24, 0x20	; 32
     fd0:	90 e0       	ldi	r25, 0x00	; 0
     fd2:	0e 94 0d 08 	call	0x101a	; 0x101a <fputc>
     fd6:	2a 94       	dec	r2
     fd8:	f6 cf       	rjmp	.-20     	; 0xfc6 <vfprintf+0x39a>
     fda:	f6 01       	movw	r30, r12
     fdc:	86 81       	ldd	r24, Z+6	; 0x06
     fde:	97 81       	ldd	r25, Z+7	; 0x07
     fe0:	02 c0       	rjmp	.+4      	; 0xfe6 <vfprintf+0x3ba>
     fe2:	8f ef       	ldi	r24, 0xFF	; 255
     fe4:	9f ef       	ldi	r25, 0xFF	; 255
     fe6:	2b 96       	adiw	r28, 0x0b	; 11
     fe8:	e2 e1       	ldi	r30, 0x12	; 18
     fea:	0c 94 c3 08 	jmp	0x1186	; 0x1186 <__epilogue_restores__>

00000fee <strnlen_P>:
     fee:	fc 01       	movw	r30, r24
     ff0:	05 90       	lpm	r0, Z+
     ff2:	61 50       	subi	r22, 0x01	; 1
     ff4:	70 40       	sbci	r23, 0x00	; 0
     ff6:	01 10       	cpse	r0, r1
     ff8:	d8 f7       	brcc	.-10     	; 0xff0 <strnlen_P+0x2>
     ffa:	80 95       	com	r24
     ffc:	90 95       	com	r25
     ffe:	8e 0f       	add	r24, r30
    1000:	9f 1f       	adc	r25, r31
    1002:	08 95       	ret

00001004 <strnlen>:
    1004:	fc 01       	movw	r30, r24
    1006:	61 50       	subi	r22, 0x01	; 1
    1008:	70 40       	sbci	r23, 0x00	; 0
    100a:	01 90       	ld	r0, Z+
    100c:	01 10       	cpse	r0, r1
    100e:	d8 f7       	brcc	.-10     	; 0x1006 <strnlen+0x2>
    1010:	80 95       	com	r24
    1012:	90 95       	com	r25
    1014:	8e 0f       	add	r24, r30
    1016:	9f 1f       	adc	r25, r31
    1018:	08 95       	ret

0000101a <fputc>:
    101a:	0f 93       	push	r16
    101c:	1f 93       	push	r17
    101e:	cf 93       	push	r28
    1020:	df 93       	push	r29
    1022:	fb 01       	movw	r30, r22
    1024:	23 81       	ldd	r18, Z+3	; 0x03
    1026:	21 fd       	sbrc	r18, 1
    1028:	03 c0       	rjmp	.+6      	; 0x1030 <fputc+0x16>
    102a:	8f ef       	ldi	r24, 0xFF	; 255
    102c:	9f ef       	ldi	r25, 0xFF	; 255
    102e:	2c c0       	rjmp	.+88     	; 0x1088 <fputc+0x6e>
    1030:	22 ff       	sbrs	r18, 2
    1032:	16 c0       	rjmp	.+44     	; 0x1060 <fputc+0x46>
    1034:	46 81       	ldd	r20, Z+6	; 0x06
    1036:	57 81       	ldd	r21, Z+7	; 0x07
    1038:	24 81       	ldd	r18, Z+4	; 0x04
    103a:	35 81       	ldd	r19, Z+5	; 0x05
    103c:	42 17       	cp	r20, r18
    103e:	53 07       	cpc	r21, r19
    1040:	44 f4       	brge	.+16     	; 0x1052 <fputc+0x38>
    1042:	a0 81       	ld	r26, Z
    1044:	b1 81       	ldd	r27, Z+1	; 0x01
    1046:	9d 01       	movw	r18, r26
    1048:	2f 5f       	subi	r18, 0xFF	; 255
    104a:	3f 4f       	sbci	r19, 0xFF	; 255
    104c:	31 83       	std	Z+1, r19	; 0x01
    104e:	20 83       	st	Z, r18
    1050:	8c 93       	st	X, r24
    1052:	26 81       	ldd	r18, Z+6	; 0x06
    1054:	37 81       	ldd	r19, Z+7	; 0x07
    1056:	2f 5f       	subi	r18, 0xFF	; 255
    1058:	3f 4f       	sbci	r19, 0xFF	; 255
    105a:	37 83       	std	Z+7, r19	; 0x07
    105c:	26 83       	std	Z+6, r18	; 0x06
    105e:	14 c0       	rjmp	.+40     	; 0x1088 <fputc+0x6e>
    1060:	8b 01       	movw	r16, r22
    1062:	ec 01       	movw	r28, r24
    1064:	fb 01       	movw	r30, r22
    1066:	00 84       	ldd	r0, Z+8	; 0x08
    1068:	f1 85       	ldd	r31, Z+9	; 0x09
    106a:	e0 2d       	mov	r30, r0
    106c:	09 95       	icall
    106e:	89 2b       	or	r24, r25
    1070:	e1 f6       	brne	.-72     	; 0x102a <fputc+0x10>
    1072:	d8 01       	movw	r26, r16
    1074:	16 96       	adiw	r26, 0x06	; 6
    1076:	8d 91       	ld	r24, X+
    1078:	9c 91       	ld	r25, X
    107a:	17 97       	sbiw	r26, 0x07	; 7
    107c:	01 96       	adiw	r24, 0x01	; 1
    107e:	17 96       	adiw	r26, 0x07	; 7
    1080:	9c 93       	st	X, r25
    1082:	8e 93       	st	-X, r24
    1084:	16 97       	sbiw	r26, 0x06	; 6
    1086:	ce 01       	movw	r24, r28
    1088:	df 91       	pop	r29
    108a:	cf 91       	pop	r28
    108c:	1f 91       	pop	r17
    108e:	0f 91       	pop	r16
    1090:	08 95       	ret

00001092 <__ultoa_invert>:
    1092:	fa 01       	movw	r30, r20
    1094:	aa 27       	eor	r26, r26
    1096:	28 30       	cpi	r18, 0x08	; 8
    1098:	51 f1       	breq	.+84     	; 0x10ee <__ultoa_invert+0x5c>
    109a:	20 31       	cpi	r18, 0x10	; 16
    109c:	81 f1       	breq	.+96     	; 0x10fe <__ultoa_invert+0x6c>
    109e:	e8 94       	clt
    10a0:	6f 93       	push	r22
    10a2:	6e 7f       	andi	r22, 0xFE	; 254
    10a4:	6e 5f       	subi	r22, 0xFE	; 254
    10a6:	7f 4f       	sbci	r23, 0xFF	; 255
    10a8:	8f 4f       	sbci	r24, 0xFF	; 255
    10aa:	9f 4f       	sbci	r25, 0xFF	; 255
    10ac:	af 4f       	sbci	r26, 0xFF	; 255
    10ae:	b1 e0       	ldi	r27, 0x01	; 1
    10b0:	3e d0       	rcall	.+124    	; 0x112e <__ultoa_invert+0x9c>
    10b2:	b4 e0       	ldi	r27, 0x04	; 4
    10b4:	3c d0       	rcall	.+120    	; 0x112e <__ultoa_invert+0x9c>
    10b6:	67 0f       	add	r22, r23
    10b8:	78 1f       	adc	r23, r24
    10ba:	89 1f       	adc	r24, r25
    10bc:	9a 1f       	adc	r25, r26
    10be:	a1 1d       	adc	r26, r1
    10c0:	68 0f       	add	r22, r24
    10c2:	79 1f       	adc	r23, r25
    10c4:	8a 1f       	adc	r24, r26
    10c6:	91 1d       	adc	r25, r1
    10c8:	a1 1d       	adc	r26, r1
    10ca:	6a 0f       	add	r22, r26
    10cc:	71 1d       	adc	r23, r1
    10ce:	81 1d       	adc	r24, r1
    10d0:	91 1d       	adc	r25, r1
    10d2:	a1 1d       	adc	r26, r1
    10d4:	20 d0       	rcall	.+64     	; 0x1116 <__ultoa_invert+0x84>
    10d6:	09 f4       	brne	.+2      	; 0x10da <__ultoa_invert+0x48>
    10d8:	68 94       	set
    10da:	3f 91       	pop	r19
    10dc:	2a e0       	ldi	r18, 0x0A	; 10
    10de:	26 9f       	mul	r18, r22
    10e0:	11 24       	eor	r1, r1
    10e2:	30 19       	sub	r19, r0
    10e4:	30 5d       	subi	r19, 0xD0	; 208
    10e6:	31 93       	st	Z+, r19
    10e8:	de f6       	brtc	.-74     	; 0x10a0 <__ultoa_invert+0xe>
    10ea:	cf 01       	movw	r24, r30
    10ec:	08 95       	ret
    10ee:	46 2f       	mov	r20, r22
    10f0:	47 70       	andi	r20, 0x07	; 7
    10f2:	40 5d       	subi	r20, 0xD0	; 208
    10f4:	41 93       	st	Z+, r20
    10f6:	b3 e0       	ldi	r27, 0x03	; 3
    10f8:	0f d0       	rcall	.+30     	; 0x1118 <__ultoa_invert+0x86>
    10fa:	c9 f7       	brne	.-14     	; 0x10ee <__ultoa_invert+0x5c>
    10fc:	f6 cf       	rjmp	.-20     	; 0x10ea <__ultoa_invert+0x58>
    10fe:	46 2f       	mov	r20, r22
    1100:	4f 70       	andi	r20, 0x0F	; 15
    1102:	40 5d       	subi	r20, 0xD0	; 208
    1104:	4a 33       	cpi	r20, 0x3A	; 58
    1106:	18 f0       	brcs	.+6      	; 0x110e <__ultoa_invert+0x7c>
    1108:	49 5d       	subi	r20, 0xD9	; 217
    110a:	31 fd       	sbrc	r19, 1
    110c:	40 52       	subi	r20, 0x20	; 32
    110e:	41 93       	st	Z+, r20
    1110:	02 d0       	rcall	.+4      	; 0x1116 <__ultoa_invert+0x84>
    1112:	a9 f7       	brne	.-22     	; 0x10fe <__ultoa_invert+0x6c>
    1114:	ea cf       	rjmp	.-44     	; 0x10ea <__ultoa_invert+0x58>
    1116:	b4 e0       	ldi	r27, 0x04	; 4
    1118:	a6 95       	lsr	r26
    111a:	97 95       	ror	r25
    111c:	87 95       	ror	r24
    111e:	77 95       	ror	r23
    1120:	67 95       	ror	r22
    1122:	ba 95       	dec	r27
    1124:	c9 f7       	brne	.-14     	; 0x1118 <__ultoa_invert+0x86>
    1126:	00 97       	sbiw	r24, 0x00	; 0
    1128:	61 05       	cpc	r22, r1
    112a:	71 05       	cpc	r23, r1
    112c:	08 95       	ret
    112e:	9b 01       	movw	r18, r22
    1130:	ac 01       	movw	r20, r24
    1132:	0a 2e       	mov	r0, r26
    1134:	06 94       	lsr	r0
    1136:	57 95       	ror	r21
    1138:	47 95       	ror	r20
    113a:	37 95       	ror	r19
    113c:	27 95       	ror	r18
    113e:	ba 95       	dec	r27
    1140:	c9 f7       	brne	.-14     	; 0x1134 <__ultoa_invert+0xa2>
    1142:	62 0f       	add	r22, r18
    1144:	73 1f       	adc	r23, r19
    1146:	84 1f       	adc	r24, r20
    1148:	95 1f       	adc	r25, r21
    114a:	a0 1d       	adc	r26, r0
    114c:	08 95       	ret

0000114e <__prologue_saves__>:
    114e:	2f 92       	push	r2
    1150:	3f 92       	push	r3
    1152:	4f 92       	push	r4
    1154:	5f 92       	push	r5
    1156:	6f 92       	push	r6
    1158:	7f 92       	push	r7
    115a:	8f 92       	push	r8
    115c:	9f 92       	push	r9
    115e:	af 92       	push	r10
    1160:	bf 92       	push	r11
    1162:	cf 92       	push	r12
    1164:	df 92       	push	r13
    1166:	ef 92       	push	r14
    1168:	ff 92       	push	r15
    116a:	0f 93       	push	r16
    116c:	1f 93       	push	r17
    116e:	cf 93       	push	r28
    1170:	df 93       	push	r29
    1172:	cd b7       	in	r28, 0x3d	; 61
    1174:	de b7       	in	r29, 0x3e	; 62
    1176:	ca 1b       	sub	r28, r26
    1178:	db 0b       	sbc	r29, r27
    117a:	0f b6       	in	r0, 0x3f	; 63
    117c:	f8 94       	cli
    117e:	de bf       	out	0x3e, r29	; 62
    1180:	0f be       	out	0x3f, r0	; 63
    1182:	cd bf       	out	0x3d, r28	; 61
    1184:	09 94       	ijmp

00001186 <__epilogue_restores__>:
    1186:	2a 88       	ldd	r2, Y+18	; 0x12
    1188:	39 88       	ldd	r3, Y+17	; 0x11
    118a:	48 88       	ldd	r4, Y+16	; 0x10
    118c:	5f 84       	ldd	r5, Y+15	; 0x0f
    118e:	6e 84       	ldd	r6, Y+14	; 0x0e
    1190:	7d 84       	ldd	r7, Y+13	; 0x0d
    1192:	8c 84       	ldd	r8, Y+12	; 0x0c
    1194:	9b 84       	ldd	r9, Y+11	; 0x0b
    1196:	aa 84       	ldd	r10, Y+10	; 0x0a
    1198:	b9 84       	ldd	r11, Y+9	; 0x09
    119a:	c8 84       	ldd	r12, Y+8	; 0x08
    119c:	df 80       	ldd	r13, Y+7	; 0x07
    119e:	ee 80       	ldd	r14, Y+6	; 0x06
    11a0:	fd 80       	ldd	r15, Y+5	; 0x05
    11a2:	0c 81       	ldd	r16, Y+4	; 0x04
    11a4:	1b 81       	ldd	r17, Y+3	; 0x03
    11a6:	aa 81       	ldd	r26, Y+2	; 0x02
    11a8:	b9 81       	ldd	r27, Y+1	; 0x01
    11aa:	ce 0f       	add	r28, r30
    11ac:	d1 1d       	adc	r29, r1
    11ae:	0f b6       	in	r0, 0x3f	; 63
    11b0:	f8 94       	cli
    11b2:	de bf       	out	0x3e, r29	; 62
    11b4:	0f be       	out	0x3f, r0	; 63
    11b6:	cd bf       	out	0x3d, r28	; 61
    11b8:	ed 01       	movw	r28, r26
    11ba:	08 95       	ret

000011bc <_exit>:
    11bc:	f8 94       	cli

000011be <__stop_program>:
    11be:	ff cf       	rjmp	.-2      	; 0x11be <__stop_program>
